
rtthread.elf:     file format elf64-littleriscv


Disassembly of section .init:

0000000061000000 <vector_base-0x410>:
    61000000:	613a                	ld	sp,392(sp)
    61000002:	6100                	ld	s0,0(a0)
    61000004:	0000                	unimp
    61000006:	0000                	unimp
    61000008:	613a                	ld	sp,392(sp)
    6100000a:	6100                	ld	s0,0(a0)
    6100000c:	0000                	unimp
    6100000e:	0000                	unimp
    61000010:	613a                	ld	sp,392(sp)
    61000012:	6100                	ld	s0,0(a0)
    61000014:	0000                	unimp
    61000016:	0000                	unimp
    61000018:	613a                	ld	sp,392(sp)
    6100001a:	6100                	ld	s0,0(a0)
    6100001c:	0000                	unimp
    6100001e:	0000                	unimp
    61000020:	613a                	ld	sp,392(sp)
    61000022:	6100                	ld	s0,0(a0)
    61000024:	0000                	unimp
    61000026:	0000                	unimp
    61000028:	613a                	ld	sp,392(sp)
    6100002a:	6100                	ld	s0,0(a0)
    6100002c:	0000                	unimp
    6100002e:	0000                	unimp
    61000030:	613a                	ld	sp,392(sp)
    61000032:	6100                	ld	s0,0(a0)
    61000034:	0000                	unimp
    61000036:	0000                	unimp
    61000038:	613a                	ld	sp,392(sp)
    6100003a:	6100                	ld	s0,0(a0)
    6100003c:	0000                	unimp
    6100003e:	0000                	unimp
    61000040:	613a                	ld	sp,392(sp)
    61000042:	6100                	ld	s0,0(a0)
    61000044:	0000                	unimp
    61000046:	0000                	unimp
    61000048:	613a                	ld	sp,392(sp)
    6100004a:	6100                	ld	s0,0(a0)
    6100004c:	0000                	unimp
    6100004e:	0000                	unimp
    61000050:	613a                	ld	sp,392(sp)
    61000052:	6100                	ld	s0,0(a0)
    61000054:	0000                	unimp
    61000056:	0000                	unimp
    61000058:	613a                	ld	sp,392(sp)
    6100005a:	6100                	ld	s0,0(a0)
    6100005c:	0000                	unimp
    6100005e:	0000                	unimp
    61000060:	613a                	ld	sp,392(sp)
    61000062:	6100                	ld	s0,0(a0)
    61000064:	0000                	unimp
    61000066:	0000                	unimp
    61000068:	613a                	ld	sp,392(sp)
    6100006a:	6100                	ld	s0,0(a0)
    6100006c:	0000                	unimp
    6100006e:	0000                	unimp
    61000070:	613a                	ld	sp,392(sp)
    61000072:	6100                	ld	s0,0(a0)
    61000074:	0000                	unimp
    61000076:	0000                	unimp
    61000078:	613a                	ld	sp,392(sp)
    6100007a:	6100                	ld	s0,0(a0)
    6100007c:	0000                	unimp
    6100007e:	0000                	unimp
    61000080:	613a                	ld	sp,392(sp)
    61000082:	6100                	ld	s0,0(a0)
    61000084:	0000                	unimp
    61000086:	0000                	unimp
    61000088:	613a                	ld	sp,392(sp)
    6100008a:	6100                	ld	s0,0(a0)
    6100008c:	0000                	unimp
    6100008e:	0000                	unimp
    61000090:	613a                	ld	sp,392(sp)
    61000092:	6100                	ld	s0,0(a0)
    61000094:	0000                	unimp
    61000096:	0000                	unimp
    61000098:	613a                	ld	sp,392(sp)
    6100009a:	6100                	ld	s0,0(a0)
    6100009c:	0000                	unimp
    6100009e:	0000                	unimp
    610000a0:	613a                	ld	sp,392(sp)
    610000a2:	6100                	ld	s0,0(a0)
    610000a4:	0000                	unimp
    610000a6:	0000                	unimp
    610000a8:	613a                	ld	sp,392(sp)
    610000aa:	6100                	ld	s0,0(a0)
    610000ac:	0000                	unimp
    610000ae:	0000                	unimp
    610000b0:	613a                	ld	sp,392(sp)
    610000b2:	6100                	ld	s0,0(a0)
    610000b4:	0000                	unimp
    610000b6:	0000                	unimp
    610000b8:	613a                	ld	sp,392(sp)
    610000ba:	6100                	ld	s0,0(a0)
    610000bc:	0000                	unimp
    610000be:	0000                	unimp
    610000c0:	613a                	ld	sp,392(sp)
    610000c2:	6100                	ld	s0,0(a0)
    610000c4:	0000                	unimp
    610000c6:	0000                	unimp
    610000c8:	613a                	ld	sp,392(sp)
    610000ca:	6100                	ld	s0,0(a0)
    610000cc:	0000                	unimp
    610000ce:	0000                	unimp
    610000d0:	613a                	ld	sp,392(sp)
    610000d2:	6100                	ld	s0,0(a0)
    610000d4:	0000                	unimp
    610000d6:	0000                	unimp
    610000d8:	613a                	ld	sp,392(sp)
    610000da:	6100                	ld	s0,0(a0)
    610000dc:	0000                	unimp
    610000de:	0000                	unimp
    610000e0:	613a                	ld	sp,392(sp)
    610000e2:	6100                	ld	s0,0(a0)
    610000e4:	0000                	unimp
    610000e6:	0000                	unimp
    610000e8:	613a                	ld	sp,392(sp)
    610000ea:	6100                	ld	s0,0(a0)
    610000ec:	0000                	unimp
    610000ee:	0000                	unimp
    610000f0:	613a                	ld	sp,392(sp)
    610000f2:	6100                	ld	s0,0(a0)
    610000f4:	0000                	unimp
    610000f6:	0000                	unimp
    610000f8:	613a                	ld	sp,392(sp)
    610000fa:	6100                	ld	s0,0(a0)
    610000fc:	0000                	unimp
    610000fe:	0000                	unimp
    61000100:	613a                	ld	sp,392(sp)
    61000102:	6100                	ld	s0,0(a0)
    61000104:	0000                	unimp
    61000106:	0000                	unimp
    61000108:	613a                	ld	sp,392(sp)
    6100010a:	6100                	ld	s0,0(a0)
    6100010c:	0000                	unimp
    6100010e:	0000                	unimp
    61000110:	613a                	ld	sp,392(sp)
    61000112:	6100                	ld	s0,0(a0)
    61000114:	0000                	unimp
    61000116:	0000                	unimp
    61000118:	613a                	ld	sp,392(sp)
    6100011a:	6100                	ld	s0,0(a0)
    6100011c:	0000                	unimp
    6100011e:	0000                	unimp
    61000120:	613a                	ld	sp,392(sp)
    61000122:	6100                	ld	s0,0(a0)
    61000124:	0000                	unimp
    61000126:	0000                	unimp
    61000128:	613a                	ld	sp,392(sp)
    6100012a:	6100                	ld	s0,0(a0)
    6100012c:	0000                	unimp
    6100012e:	0000                	unimp
    61000130:	613a                	ld	sp,392(sp)
    61000132:	6100                	ld	s0,0(a0)
    61000134:	0000                	unimp
    61000136:	0000                	unimp
    61000138:	613a                	ld	sp,392(sp)
    6100013a:	6100                	ld	s0,0(a0)
    6100013c:	0000                	unimp
    6100013e:	0000                	unimp
    61000140:	613a                	ld	sp,392(sp)
    61000142:	6100                	ld	s0,0(a0)
    61000144:	0000                	unimp
    61000146:	0000                	unimp
    61000148:	613a                	ld	sp,392(sp)
    6100014a:	6100                	ld	s0,0(a0)
    6100014c:	0000                	unimp
    6100014e:	0000                	unimp
    61000150:	613a                	ld	sp,392(sp)
    61000152:	6100                	ld	s0,0(a0)
    61000154:	0000                	unimp
    61000156:	0000                	unimp
    61000158:	613a                	ld	sp,392(sp)
    6100015a:	6100                	ld	s0,0(a0)
    6100015c:	0000                	unimp
    6100015e:	0000                	unimp
    61000160:	613a                	ld	sp,392(sp)
    61000162:	6100                	ld	s0,0(a0)
    61000164:	0000                	unimp
    61000166:	0000                	unimp
    61000168:	613a                	ld	sp,392(sp)
    6100016a:	6100                	ld	s0,0(a0)
    6100016c:	0000                	unimp
    6100016e:	0000                	unimp
    61000170:	613a                	ld	sp,392(sp)
    61000172:	6100                	ld	s0,0(a0)
    61000174:	0000                	unimp
    61000176:	0000                	unimp
    61000178:	613a                	ld	sp,392(sp)
    6100017a:	6100                	ld	s0,0(a0)
    6100017c:	0000                	unimp
    6100017e:	0000                	unimp
    61000180:	613a                	ld	sp,392(sp)
    61000182:	6100                	ld	s0,0(a0)
    61000184:	0000                	unimp
    61000186:	0000                	unimp
    61000188:	613a                	ld	sp,392(sp)
    6100018a:	6100                	ld	s0,0(a0)
    6100018c:	0000                	unimp
    6100018e:	0000                	unimp
    61000190:	613a                	ld	sp,392(sp)
    61000192:	6100                	ld	s0,0(a0)
    61000194:	0000                	unimp
    61000196:	0000                	unimp
    61000198:	613a                	ld	sp,392(sp)
    6100019a:	6100                	ld	s0,0(a0)
    6100019c:	0000                	unimp
    6100019e:	0000                	unimp
    610001a0:	613a                	ld	sp,392(sp)
    610001a2:	6100                	ld	s0,0(a0)
    610001a4:	0000                	unimp
    610001a6:	0000                	unimp
    610001a8:	613a                	ld	sp,392(sp)
    610001aa:	6100                	ld	s0,0(a0)
    610001ac:	0000                	unimp
    610001ae:	0000                	unimp
    610001b0:	613a                	ld	sp,392(sp)
    610001b2:	6100                	ld	s0,0(a0)
    610001b4:	0000                	unimp
    610001b6:	0000                	unimp
    610001b8:	613a                	ld	sp,392(sp)
    610001ba:	6100                	ld	s0,0(a0)
    610001bc:	0000                	unimp
    610001be:	0000                	unimp
    610001c0:	613a                	ld	sp,392(sp)
    610001c2:	6100                	ld	s0,0(a0)
    610001c4:	0000                	unimp
    610001c6:	0000                	unimp
    610001c8:	613a                	ld	sp,392(sp)
    610001ca:	6100                	ld	s0,0(a0)
    610001cc:	0000                	unimp
    610001ce:	0000                	unimp
    610001d0:	613a                	ld	sp,392(sp)
    610001d2:	6100                	ld	s0,0(a0)
    610001d4:	0000                	unimp
    610001d6:	0000                	unimp
    610001d8:	613a                	ld	sp,392(sp)
    610001da:	6100                	ld	s0,0(a0)
    610001dc:	0000                	unimp
    610001de:	0000                	unimp
    610001e0:	613a                	ld	sp,392(sp)
    610001e2:	6100                	ld	s0,0(a0)
    610001e4:	0000                	unimp
    610001e6:	0000                	unimp
    610001e8:	613a                	ld	sp,392(sp)
    610001ea:	6100                	ld	s0,0(a0)
    610001ec:	0000                	unimp
    610001ee:	0000                	unimp
    610001f0:	613a                	ld	sp,392(sp)
    610001f2:	6100                	ld	s0,0(a0)
    610001f4:	0000                	unimp
    610001f6:	0000                	unimp
    610001f8:	613a                	ld	sp,392(sp)
    610001fa:	6100                	ld	s0,0(a0)
    610001fc:	0000                	unimp
    610001fe:	0000                	unimp
    61000200:	613a                	ld	sp,392(sp)
    61000202:	6100                	ld	s0,0(a0)
    61000204:	0000                	unimp
    61000206:	0000                	unimp
    61000208:	613a                	ld	sp,392(sp)
    6100020a:	6100                	ld	s0,0(a0)
    6100020c:	0000                	unimp
    6100020e:	0000                	unimp
    61000210:	613a                	ld	sp,392(sp)
    61000212:	6100                	ld	s0,0(a0)
    61000214:	0000                	unimp
    61000216:	0000                	unimp
    61000218:	613a                	ld	sp,392(sp)
    6100021a:	6100                	ld	s0,0(a0)
    6100021c:	0000                	unimp
    6100021e:	0000                	unimp
    61000220:	613a                	ld	sp,392(sp)
    61000222:	6100                	ld	s0,0(a0)
    61000224:	0000                	unimp
    61000226:	0000                	unimp
    61000228:	613a                	ld	sp,392(sp)
    6100022a:	6100                	ld	s0,0(a0)
    6100022c:	0000                	unimp
    6100022e:	0000                	unimp
    61000230:	613a                	ld	sp,392(sp)
    61000232:	6100                	ld	s0,0(a0)
    61000234:	0000                	unimp
    61000236:	0000                	unimp
    61000238:	613a                	ld	sp,392(sp)
    6100023a:	6100                	ld	s0,0(a0)
    6100023c:	0000                	unimp
    6100023e:	0000                	unimp
    61000240:	613a                	ld	sp,392(sp)
    61000242:	6100                	ld	s0,0(a0)
    61000244:	0000                	unimp
    61000246:	0000                	unimp
    61000248:	613a                	ld	sp,392(sp)
    6100024a:	6100                	ld	s0,0(a0)
    6100024c:	0000                	unimp
    6100024e:	0000                	unimp
    61000250:	613a                	ld	sp,392(sp)
    61000252:	6100                	ld	s0,0(a0)
    61000254:	0000                	unimp
    61000256:	0000                	unimp
    61000258:	613a                	ld	sp,392(sp)
    6100025a:	6100                	ld	s0,0(a0)
    6100025c:	0000                	unimp
    6100025e:	0000                	unimp
    61000260:	613a                	ld	sp,392(sp)
    61000262:	6100                	ld	s0,0(a0)
    61000264:	0000                	unimp
    61000266:	0000                	unimp
    61000268:	613a                	ld	sp,392(sp)
    6100026a:	6100                	ld	s0,0(a0)
    6100026c:	0000                	unimp
    6100026e:	0000                	unimp
    61000270:	613a                	ld	sp,392(sp)
    61000272:	6100                	ld	s0,0(a0)
    61000274:	0000                	unimp
    61000276:	0000                	unimp
    61000278:	613a                	ld	sp,392(sp)
    6100027a:	6100                	ld	s0,0(a0)
    6100027c:	0000                	unimp
    6100027e:	0000                	unimp
    61000280:	613a                	ld	sp,392(sp)
    61000282:	6100                	ld	s0,0(a0)
    61000284:	0000                	unimp
    61000286:	0000                	unimp
    61000288:	613a                	ld	sp,392(sp)
    6100028a:	6100                	ld	s0,0(a0)
    6100028c:	0000                	unimp
    6100028e:	0000                	unimp
    61000290:	613a                	ld	sp,392(sp)
    61000292:	6100                	ld	s0,0(a0)
    61000294:	0000                	unimp
    61000296:	0000                	unimp
    61000298:	613a                	ld	sp,392(sp)
    6100029a:	6100                	ld	s0,0(a0)
    6100029c:	0000                	unimp
    6100029e:	0000                	unimp
    610002a0:	613a                	ld	sp,392(sp)
    610002a2:	6100                	ld	s0,0(a0)
    610002a4:	0000                	unimp
    610002a6:	0000                	unimp
    610002a8:	613a                	ld	sp,392(sp)
    610002aa:	6100                	ld	s0,0(a0)
    610002ac:	0000                	unimp
    610002ae:	0000                	unimp
    610002b0:	613a                	ld	sp,392(sp)
    610002b2:	6100                	ld	s0,0(a0)
    610002b4:	0000                	unimp
    610002b6:	0000                	unimp
    610002b8:	613a                	ld	sp,392(sp)
    610002ba:	6100                	ld	s0,0(a0)
    610002bc:	0000                	unimp
    610002be:	0000                	unimp
    610002c0:	613a                	ld	sp,392(sp)
    610002c2:	6100                	ld	s0,0(a0)
    610002c4:	0000                	unimp
    610002c6:	0000                	unimp
    610002c8:	613a                	ld	sp,392(sp)
    610002ca:	6100                	ld	s0,0(a0)
    610002cc:	0000                	unimp
    610002ce:	0000                	unimp
    610002d0:	613a                	ld	sp,392(sp)
    610002d2:	6100                	ld	s0,0(a0)
    610002d4:	0000                	unimp
    610002d6:	0000                	unimp
    610002d8:	613a                	ld	sp,392(sp)
    610002da:	6100                	ld	s0,0(a0)
    610002dc:	0000                	unimp
    610002de:	0000                	unimp
    610002e0:	613a                	ld	sp,392(sp)
    610002e2:	6100                	ld	s0,0(a0)
    610002e4:	0000                	unimp
    610002e6:	0000                	unimp
    610002e8:	613a                	ld	sp,392(sp)
    610002ea:	6100                	ld	s0,0(a0)
    610002ec:	0000                	unimp
    610002ee:	0000                	unimp
    610002f0:	613a                	ld	sp,392(sp)
    610002f2:	6100                	ld	s0,0(a0)
    610002f4:	0000                	unimp
    610002f6:	0000                	unimp
    610002f8:	613a                	ld	sp,392(sp)
    610002fa:	6100                	ld	s0,0(a0)
    610002fc:	0000                	unimp
    610002fe:	0000                	unimp
    61000300:	613a                	ld	sp,392(sp)
    61000302:	6100                	ld	s0,0(a0)
    61000304:	0000                	unimp
    61000306:	0000                	unimp
    61000308:	613a                	ld	sp,392(sp)
    6100030a:	6100                	ld	s0,0(a0)
    6100030c:	0000                	unimp
    6100030e:	0000                	unimp
    61000310:	613a                	ld	sp,392(sp)
    61000312:	6100                	ld	s0,0(a0)
    61000314:	0000                	unimp
    61000316:	0000                	unimp
    61000318:	613a                	ld	sp,392(sp)
    6100031a:	6100                	ld	s0,0(a0)
    6100031c:	0000                	unimp
    6100031e:	0000                	unimp
    61000320:	613a                	ld	sp,392(sp)
    61000322:	6100                	ld	s0,0(a0)
    61000324:	0000                	unimp
    61000326:	0000                	unimp
    61000328:	613a                	ld	sp,392(sp)
    6100032a:	6100                	ld	s0,0(a0)
    6100032c:	0000                	unimp
    6100032e:	0000                	unimp
    61000330:	613a                	ld	sp,392(sp)
    61000332:	6100                	ld	s0,0(a0)
    61000334:	0000                	unimp
    61000336:	0000                	unimp
    61000338:	613a                	ld	sp,392(sp)
    6100033a:	6100                	ld	s0,0(a0)
    6100033c:	0000                	unimp
    6100033e:	0000                	unimp
    61000340:	613a                	ld	sp,392(sp)
    61000342:	6100                	ld	s0,0(a0)
    61000344:	0000                	unimp
    61000346:	0000                	unimp
    61000348:	613a                	ld	sp,392(sp)
    6100034a:	6100                	ld	s0,0(a0)
    6100034c:	0000                	unimp
    6100034e:	0000                	unimp
    61000350:	613a                	ld	sp,392(sp)
    61000352:	6100                	ld	s0,0(a0)
    61000354:	0000                	unimp
    61000356:	0000                	unimp
    61000358:	613a                	ld	sp,392(sp)
    6100035a:	6100                	ld	s0,0(a0)
    6100035c:	0000                	unimp
    6100035e:	0000                	unimp
    61000360:	613a                	ld	sp,392(sp)
    61000362:	6100                	ld	s0,0(a0)
    61000364:	0000                	unimp
    61000366:	0000                	unimp
    61000368:	613a                	ld	sp,392(sp)
    6100036a:	6100                	ld	s0,0(a0)
    6100036c:	0000                	unimp
    6100036e:	0000                	unimp
    61000370:	613a                	ld	sp,392(sp)
    61000372:	6100                	ld	s0,0(a0)
    61000374:	0000                	unimp
    61000376:	0000                	unimp
    61000378:	613a                	ld	sp,392(sp)
    6100037a:	6100                	ld	s0,0(a0)
    6100037c:	0000                	unimp
    6100037e:	0000                	unimp
    61000380:	613a                	ld	sp,392(sp)
    61000382:	6100                	ld	s0,0(a0)
    61000384:	0000                	unimp
    61000386:	0000                	unimp
    61000388:	613a                	ld	sp,392(sp)
    6100038a:	6100                	ld	s0,0(a0)
    6100038c:	0000                	unimp
    6100038e:	0000                	unimp
    61000390:	613a                	ld	sp,392(sp)
    61000392:	6100                	ld	s0,0(a0)
    61000394:	0000                	unimp
    61000396:	0000                	unimp
    61000398:	613a                	ld	sp,392(sp)
    6100039a:	6100                	ld	s0,0(a0)
    6100039c:	0000                	unimp
    6100039e:	0000                	unimp
    610003a0:	613a                	ld	sp,392(sp)
    610003a2:	6100                	ld	s0,0(a0)
    610003a4:	0000                	unimp
    610003a6:	0000                	unimp
    610003a8:	613a                	ld	sp,392(sp)
    610003aa:	6100                	ld	s0,0(a0)
    610003ac:	0000                	unimp
    610003ae:	0000                	unimp
    610003b0:	613a                	ld	sp,392(sp)
    610003b2:	6100                	ld	s0,0(a0)
    610003b4:	0000                	unimp
    610003b6:	0000                	unimp
    610003b8:	613a                	ld	sp,392(sp)
    610003ba:	6100                	ld	s0,0(a0)
    610003bc:	0000                	unimp
    610003be:	0000                	unimp
    610003c0:	613a                	ld	sp,392(sp)
    610003c2:	6100                	ld	s0,0(a0)
    610003c4:	0000                	unimp
    610003c6:	0000                	unimp
    610003c8:	613a                	ld	sp,392(sp)
    610003ca:	6100                	ld	s0,0(a0)
    610003cc:	0000                	unimp
    610003ce:	0000                	unimp
    610003d0:	613a                	ld	sp,392(sp)
    610003d2:	6100                	ld	s0,0(a0)
    610003d4:	0000                	unimp
    610003d6:	0000                	unimp
    610003d8:	613a                	ld	sp,392(sp)
    610003da:	6100                	ld	s0,0(a0)
    610003dc:	0000                	unimp
    610003de:	0000                	unimp
    610003e0:	613a                	ld	sp,392(sp)
    610003e2:	6100                	ld	s0,0(a0)
    610003e4:	0000                	unimp
    610003e6:	0000                	unimp
    610003e8:	613a                	ld	sp,392(sp)
    610003ea:	6100                	ld	s0,0(a0)
    610003ec:	0000                	unimp
    610003ee:	0000                	unimp
    610003f0:	613a                	ld	sp,392(sp)
    610003f2:	6100                	ld	s0,0(a0)
    610003f4:	0000                	unimp
    610003f6:	0000                	unimp
    610003f8:	613a                	ld	sp,392(sp)
    610003fa:	6100                	ld	s0,0(a0)
    610003fc:	0000                	unimp
    610003fe:	0000                	unimp
    61000400:	613a                	ld	sp,392(sp)
    61000402:	6100                	ld	s0,0(a0)
    61000404:	0000                	unimp
    61000406:	0000                	unimp
    61000408:	613a                	ld	sp,392(sp)
    6100040a:	6100                	ld	s0,0(a0)
    6100040c:	0000                	unimp
	...

0000000061000410 <vector_base>:
    61000410:	613a                	ld	sp,392(sp)
    61000412:	6100                	ld	s0,0(a0)
    61000414:	0000                	unimp
    61000416:	0000                	unimp
    61000418:	613a                	ld	sp,392(sp)
    6100041a:	6100                	ld	s0,0(a0)
    6100041c:	0000                	unimp
    6100041e:	0000                	unimp
    61000420:	613a                	ld	sp,392(sp)
    61000422:	6100                	ld	s0,0(a0)
    61000424:	0000                	unimp
    61000426:	0000                	unimp
    61000428:	613a                	ld	sp,392(sp)
    6100042a:	6100                	ld	s0,0(a0)
    6100042c:	0000                	unimp
    6100042e:	0000                	unimp
    61000430:	613a                	ld	sp,392(sp)
    61000432:	6100                	ld	s0,0(a0)
    61000434:	0000                	unimp
    61000436:	0000                	unimp
    61000438:	613a                	ld	sp,392(sp)
    6100043a:	6100                	ld	s0,0(a0)
    6100043c:	0000                	unimp
    6100043e:	0000                	unimp
    61000440:	613a                	ld	sp,392(sp)
    61000442:	6100                	ld	s0,0(a0)
    61000444:	0000                	unimp
    61000446:	0000                	unimp
    61000448:	613a                	ld	sp,392(sp)
    6100044a:	6100                	ld	s0,0(a0)
    6100044c:	0000                	unimp
    6100044e:	0000                	unimp
    61000450:	613a                	ld	sp,392(sp)
    61000452:	6100                	ld	s0,0(a0)
    61000454:	0000                	unimp
    61000456:	0000                	unimp
    61000458:	613a                	ld	sp,392(sp)
    6100045a:	6100                	ld	s0,0(a0)
    6100045c:	0000                	unimp
    6100045e:	0000                	unimp
    61000460:	613a                	ld	sp,392(sp)
    61000462:	6100                	ld	s0,0(a0)
    61000464:	0000                	unimp
    61000466:	0000                	unimp
    61000468:	613a                	ld	sp,392(sp)
    6100046a:	6100                	ld	s0,0(a0)
    6100046c:	0000                	unimp
    6100046e:	0000                	unimp
    61000470:	613a                	ld	sp,392(sp)
    61000472:	6100                	ld	s0,0(a0)
    61000474:	0000                	unimp
    61000476:	0000                	unimp
    61000478:	613a                	ld	sp,392(sp)
    6100047a:	6100                	ld	s0,0(a0)
    6100047c:	0000                	unimp
    6100047e:	0000                	unimp
    61000480:	613a                	ld	sp,392(sp)
    61000482:	6100                	ld	s0,0(a0)
    61000484:	0000                	unimp
    61000486:	0000                	unimp
    61000488:	613a                	ld	sp,392(sp)
    6100048a:	6100                	ld	s0,0(a0)
    6100048c:	0000                	unimp
    6100048e:	0000                	unimp
    61000490:	613a                	ld	sp,392(sp)
    61000492:	6100                	ld	s0,0(a0)
    61000494:	0000                	unimp
    61000496:	0000                	unimp
    61000498:	613a                	ld	sp,392(sp)
    6100049a:	6100                	ld	s0,0(a0)
    6100049c:	0000                	unimp
    6100049e:	0000                	unimp
    610004a0:	613a                	ld	sp,392(sp)
    610004a2:	6100                	ld	s0,0(a0)
    610004a4:	0000                	unimp
    610004a6:	0000                	unimp
    610004a8:	613a                	ld	sp,392(sp)
    610004aa:	6100                	ld	s0,0(a0)
    610004ac:	0000                	unimp
    610004ae:	0000                	unimp
    610004b0:	613a                	ld	sp,392(sp)
    610004b2:	6100                	ld	s0,0(a0)
    610004b4:	0000                	unimp
    610004b6:	0000                	unimp
    610004b8:	613a                	ld	sp,392(sp)
    610004ba:	6100                	ld	s0,0(a0)
    610004bc:	0000                	unimp
    610004be:	0000                	unimp
    610004c0:	613a                	ld	sp,392(sp)
    610004c2:	6100                	ld	s0,0(a0)
    610004c4:	0000                	unimp
    610004c6:	0000                	unimp
    610004c8:	613a                	ld	sp,392(sp)
    610004ca:	6100                	ld	s0,0(a0)
    610004cc:	0000                	unimp
    610004ce:	0000                	unimp
    610004d0:	613a                	ld	sp,392(sp)
    610004d2:	6100                	ld	s0,0(a0)
    610004d4:	0000                	unimp
    610004d6:	0000                	unimp
    610004d8:	613a                	ld	sp,392(sp)
    610004da:	6100                	ld	s0,0(a0)
    610004dc:	0000                	unimp
    610004de:	0000                	unimp
    610004e0:	613a                	ld	sp,392(sp)
    610004e2:	6100                	ld	s0,0(a0)
    610004e4:	0000                	unimp
    610004e6:	0000                	unimp
    610004e8:	613a                	ld	sp,392(sp)
    610004ea:	6100                	ld	s0,0(a0)
    610004ec:	0000                	unimp
    610004ee:	0000                	unimp
    610004f0:	613a                	ld	sp,392(sp)
    610004f2:	6100                	ld	s0,0(a0)
    610004f4:	0000                	unimp
    610004f6:	0000                	unimp
    610004f8:	613a                	ld	sp,392(sp)
    610004fa:	6100                	ld	s0,0(a0)
    610004fc:	0000                	unimp
    610004fe:	0000                	unimp
    61000500:	613a                	ld	sp,392(sp)
    61000502:	6100                	ld	s0,0(a0)
    61000504:	0000                	unimp
    61000506:	0000                	unimp
    61000508:	613a                	ld	sp,392(sp)
    6100050a:	6100                	ld	s0,0(a0)
    6100050c:	0000                	unimp
    6100050e:	0000                	unimp
    61000510:	613a                	ld	sp,392(sp)
    61000512:	6100                	ld	s0,0(a0)
    61000514:	0000                	unimp
    61000516:	0000                	unimp
    61000518:	613a                	ld	sp,392(sp)
    6100051a:	6100                	ld	s0,0(a0)
    6100051c:	0000                	unimp
    6100051e:	0000                	unimp
    61000520:	613a                	ld	sp,392(sp)
    61000522:	6100                	ld	s0,0(a0)
    61000524:	0000                	unimp
    61000526:	0000                	unimp
    61000528:	613a                	ld	sp,392(sp)
    6100052a:	6100                	ld	s0,0(a0)
    6100052c:	0000                	unimp
    6100052e:	0000                	unimp
    61000530:	613a                	ld	sp,392(sp)
    61000532:	6100                	ld	s0,0(a0)
    61000534:	0000                	unimp
    61000536:	0000                	unimp
    61000538:	613a                	ld	sp,392(sp)
    6100053a:	6100                	ld	s0,0(a0)
    6100053c:	0000                	unimp
    6100053e:	0000                	unimp
    61000540:	613a                	ld	sp,392(sp)
    61000542:	6100                	ld	s0,0(a0)
    61000544:	0000                	unimp
    61000546:	0000                	unimp
    61000548:	613a                	ld	sp,392(sp)
    6100054a:	6100                	ld	s0,0(a0)
    6100054c:	0000                	unimp
    6100054e:	0000                	unimp
    61000550:	613a                	ld	sp,392(sp)
    61000552:	6100                	ld	s0,0(a0)
    61000554:	0000                	unimp
    61000556:	0000                	unimp
    61000558:	613a                	ld	sp,392(sp)
    6100055a:	6100                	ld	s0,0(a0)
    6100055c:	0000                	unimp
    6100055e:	0000                	unimp
    61000560:	613a                	ld	sp,392(sp)
    61000562:	6100                	ld	s0,0(a0)
    61000564:	0000                	unimp
    61000566:	0000                	unimp
    61000568:	613a                	ld	sp,392(sp)
    6100056a:	6100                	ld	s0,0(a0)
    6100056c:	0000                	unimp
    6100056e:	0000                	unimp
    61000570:	613a                	ld	sp,392(sp)
    61000572:	6100                	ld	s0,0(a0)
    61000574:	0000                	unimp
    61000576:	0000                	unimp
    61000578:	613a                	ld	sp,392(sp)
    6100057a:	6100                	ld	s0,0(a0)
    6100057c:	0000                	unimp
    6100057e:	0000                	unimp
    61000580:	613a                	ld	sp,392(sp)
    61000582:	6100                	ld	s0,0(a0)
    61000584:	0000                	unimp
    61000586:	0000                	unimp
    61000588:	613a                	ld	sp,392(sp)
    6100058a:	6100                	ld	s0,0(a0)
    6100058c:	0000                	unimp
    6100058e:	0000                	unimp
    61000590:	613a                	ld	sp,392(sp)
    61000592:	6100                	ld	s0,0(a0)
    61000594:	0000                	unimp
    61000596:	0000                	unimp
    61000598:	613a                	ld	sp,392(sp)
    6100059a:	6100                	ld	s0,0(a0)
    6100059c:	0000                	unimp
    6100059e:	0000                	unimp
    610005a0:	613a                	ld	sp,392(sp)
    610005a2:	6100                	ld	s0,0(a0)
    610005a4:	0000                	unimp
    610005a6:	0000                	unimp
    610005a8:	613a                	ld	sp,392(sp)
    610005aa:	6100                	ld	s0,0(a0)
    610005ac:	0000                	unimp
    610005ae:	0000                	unimp
    610005b0:	613a                	ld	sp,392(sp)
    610005b2:	6100                	ld	s0,0(a0)
    610005b4:	0000                	unimp
    610005b6:	0000                	unimp
    610005b8:	613a                	ld	sp,392(sp)
    610005ba:	6100                	ld	s0,0(a0)
    610005bc:	0000                	unimp
    610005be:	0000                	unimp
    610005c0:	613a                	ld	sp,392(sp)
    610005c2:	6100                	ld	s0,0(a0)
    610005c4:	0000                	unimp
    610005c6:	0000                	unimp
    610005c8:	613a                	ld	sp,392(sp)
    610005ca:	6100                	ld	s0,0(a0)
    610005cc:	0000                	unimp
    610005ce:	0000                	unimp
    610005d0:	613a                	ld	sp,392(sp)
    610005d2:	6100                	ld	s0,0(a0)
    610005d4:	0000                	unimp
    610005d6:	0000                	unimp
    610005d8:	613a                	ld	sp,392(sp)
    610005da:	6100                	ld	s0,0(a0)
    610005dc:	0000                	unimp
    610005de:	0000                	unimp
    610005e0:	613a                	ld	sp,392(sp)
    610005e2:	6100                	ld	s0,0(a0)
    610005e4:	0000                	unimp
    610005e6:	0000                	unimp
    610005e8:	613a                	ld	sp,392(sp)
    610005ea:	6100                	ld	s0,0(a0)
    610005ec:	0000                	unimp
    610005ee:	0000                	unimp
    610005f0:	613a                	ld	sp,392(sp)
    610005f2:	6100                	ld	s0,0(a0)
    610005f4:	0000                	unimp
    610005f6:	0000                	unimp
    610005f8:	613a                	ld	sp,392(sp)
    610005fa:	6100                	ld	s0,0(a0)
    610005fc:	0000                	unimp
    610005fe:	0000                	unimp
    61000600:	613a                	ld	sp,392(sp)
    61000602:	6100                	ld	s0,0(a0)
    61000604:	0000                	unimp
    61000606:	0000                	unimp
    61000608:	613a                	ld	sp,392(sp)
    6100060a:	6100                	ld	s0,0(a0)
    6100060c:	0000                	unimp
    6100060e:	0000                	unimp
    61000610:	613a                	ld	sp,392(sp)
    61000612:	6100                	ld	s0,0(a0)
    61000614:	0000                	unimp
    61000616:	0000                	unimp
    61000618:	613a                	ld	sp,392(sp)
    6100061a:	6100                	ld	s0,0(a0)
    6100061c:	0000                	unimp
    6100061e:	0000                	unimp
    61000620:	613a                	ld	sp,392(sp)
    61000622:	6100                	ld	s0,0(a0)
    61000624:	0000                	unimp
    61000626:	0000                	unimp
    61000628:	613a                	ld	sp,392(sp)
    6100062a:	6100                	ld	s0,0(a0)
    6100062c:	0000                	unimp
    6100062e:	0000                	unimp
    61000630:	613a                	ld	sp,392(sp)
    61000632:	6100                	ld	s0,0(a0)
    61000634:	0000                	unimp
    61000636:	0000                	unimp
    61000638:	613a                	ld	sp,392(sp)
    6100063a:	6100                	ld	s0,0(a0)
    6100063c:	0000                	unimp
    6100063e:	0000                	unimp
    61000640:	613a                	ld	sp,392(sp)
    61000642:	6100                	ld	s0,0(a0)
    61000644:	0000                	unimp
    61000646:	0000                	unimp
    61000648:	613a                	ld	sp,392(sp)
    6100064a:	6100                	ld	s0,0(a0)
    6100064c:	0000                	unimp
    6100064e:	0000                	unimp
    61000650:	613a                	ld	sp,392(sp)
    61000652:	6100                	ld	s0,0(a0)
    61000654:	0000                	unimp
    61000656:	0000                	unimp
    61000658:	613a                	ld	sp,392(sp)
    6100065a:	6100                	ld	s0,0(a0)
    6100065c:	0000                	unimp
    6100065e:	0000                	unimp
    61000660:	613a                	ld	sp,392(sp)
    61000662:	6100                	ld	s0,0(a0)
    61000664:	0000                	unimp
    61000666:	0000                	unimp
    61000668:	613a                	ld	sp,392(sp)
    6100066a:	6100                	ld	s0,0(a0)
    6100066c:	0000                	unimp
    6100066e:	0000                	unimp
    61000670:	613a                	ld	sp,392(sp)
    61000672:	6100                	ld	s0,0(a0)
    61000674:	0000                	unimp
    61000676:	0000                	unimp
    61000678:	613a                	ld	sp,392(sp)
    6100067a:	6100                	ld	s0,0(a0)
    6100067c:	0000                	unimp
    6100067e:	0000                	unimp
    61000680:	613a                	ld	sp,392(sp)
    61000682:	6100                	ld	s0,0(a0)
    61000684:	0000                	unimp
    61000686:	0000                	unimp
    61000688:	613a                	ld	sp,392(sp)
    6100068a:	6100                	ld	s0,0(a0)
    6100068c:	0000                	unimp
    6100068e:	0000                	unimp
    61000690:	613a                	ld	sp,392(sp)
    61000692:	6100                	ld	s0,0(a0)
    61000694:	0000                	unimp
    61000696:	0000                	unimp
    61000698:	613a                	ld	sp,392(sp)
    6100069a:	6100                	ld	s0,0(a0)
    6100069c:	0000                	unimp
    6100069e:	0000                	unimp
    610006a0:	613a                	ld	sp,392(sp)
    610006a2:	6100                	ld	s0,0(a0)
    610006a4:	0000                	unimp
    610006a6:	0000                	unimp
    610006a8:	613a                	ld	sp,392(sp)
    610006aa:	6100                	ld	s0,0(a0)
    610006ac:	0000                	unimp
    610006ae:	0000                	unimp
    610006b0:	613a                	ld	sp,392(sp)
    610006b2:	6100                	ld	s0,0(a0)
    610006b4:	0000                	unimp
    610006b6:	0000                	unimp
    610006b8:	613a                	ld	sp,392(sp)
    610006ba:	6100                	ld	s0,0(a0)
    610006bc:	0000                	unimp
    610006be:	0000                	unimp
    610006c0:	613a                	ld	sp,392(sp)
    610006c2:	6100                	ld	s0,0(a0)
    610006c4:	0000                	unimp
    610006c6:	0000                	unimp
    610006c8:	613a                	ld	sp,392(sp)
    610006ca:	6100                	ld	s0,0(a0)
    610006cc:	0000                	unimp
    610006ce:	0000                	unimp
    610006d0:	613a                	ld	sp,392(sp)
    610006d2:	6100                	ld	s0,0(a0)
    610006d4:	0000                	unimp
    610006d6:	0000                	unimp
    610006d8:	613a                	ld	sp,392(sp)
    610006da:	6100                	ld	s0,0(a0)
    610006dc:	0000                	unimp
    610006de:	0000                	unimp
    610006e0:	613a                	ld	sp,392(sp)
    610006e2:	6100                	ld	s0,0(a0)
    610006e4:	0000                	unimp
    610006e6:	0000                	unimp
    610006e8:	613a                	ld	sp,392(sp)
    610006ea:	6100                	ld	s0,0(a0)
    610006ec:	0000                	unimp
    610006ee:	0000                	unimp
    610006f0:	613a                	ld	sp,392(sp)
    610006f2:	6100                	ld	s0,0(a0)
    610006f4:	0000                	unimp
    610006f6:	0000                	unimp
    610006f8:	613a                	ld	sp,392(sp)
    610006fa:	6100                	ld	s0,0(a0)
    610006fc:	0000                	unimp
    610006fe:	0000                	unimp
    61000700:	613a                	ld	sp,392(sp)
    61000702:	6100                	ld	s0,0(a0)
    61000704:	0000                	unimp
    61000706:	0000                	unimp
    61000708:	613a                	ld	sp,392(sp)
    6100070a:	6100                	ld	s0,0(a0)
    6100070c:	0000                	unimp
    6100070e:	0000                	unimp
    61000710:	613a                	ld	sp,392(sp)
    61000712:	6100                	ld	s0,0(a0)
    61000714:	0000                	unimp
    61000716:	0000                	unimp
    61000718:	613a                	ld	sp,392(sp)
    6100071a:	6100                	ld	s0,0(a0)
    6100071c:	0000                	unimp
    6100071e:	0000                	unimp
    61000720:	613a                	ld	sp,392(sp)
    61000722:	6100                	ld	s0,0(a0)
    61000724:	0000                	unimp
    61000726:	0000                	unimp
    61000728:	613a                	ld	sp,392(sp)
    6100072a:	6100                	ld	s0,0(a0)
    6100072c:	0000                	unimp
    6100072e:	0000                	unimp
    61000730:	613a                	ld	sp,392(sp)
    61000732:	6100                	ld	s0,0(a0)
    61000734:	0000                	unimp
    61000736:	0000                	unimp
    61000738:	613a                	ld	sp,392(sp)
    6100073a:	6100                	ld	s0,0(a0)
    6100073c:	0000                	unimp
    6100073e:	0000                	unimp
    61000740:	613a                	ld	sp,392(sp)
    61000742:	6100                	ld	s0,0(a0)
    61000744:	0000                	unimp
    61000746:	0000                	unimp
    61000748:	613a                	ld	sp,392(sp)
    6100074a:	6100                	ld	s0,0(a0)
    6100074c:	0000                	unimp
    6100074e:	0000                	unimp
    61000750:	613a                	ld	sp,392(sp)
    61000752:	6100                	ld	s0,0(a0)
    61000754:	0000                	unimp
    61000756:	0000                	unimp
    61000758:	613a                	ld	sp,392(sp)
    6100075a:	6100                	ld	s0,0(a0)
    6100075c:	0000                	unimp
    6100075e:	0000                	unimp
    61000760:	613a                	ld	sp,392(sp)
    61000762:	6100                	ld	s0,0(a0)
    61000764:	0000                	unimp
    61000766:	0000                	unimp
    61000768:	613a                	ld	sp,392(sp)
    6100076a:	6100                	ld	s0,0(a0)
    6100076c:	0000                	unimp
    6100076e:	0000                	unimp
    61000770:	613a                	ld	sp,392(sp)
    61000772:	6100                	ld	s0,0(a0)
    61000774:	0000                	unimp
    61000776:	0000                	unimp
    61000778:	613a                	ld	sp,392(sp)
    6100077a:	6100                	ld	s0,0(a0)
    6100077c:	0000                	unimp
    6100077e:	0000                	unimp
    61000780:	613a                	ld	sp,392(sp)
    61000782:	6100                	ld	s0,0(a0)
    61000784:	0000                	unimp
    61000786:	0000                	unimp
    61000788:	613a                	ld	sp,392(sp)
    6100078a:	6100                	ld	s0,0(a0)
    6100078c:	0000                	unimp
    6100078e:	0000                	unimp
    61000790:	613a                	ld	sp,392(sp)
    61000792:	6100                	ld	s0,0(a0)
    61000794:	0000                	unimp
    61000796:	0000                	unimp
    61000798:	613a                	ld	sp,392(sp)
    6100079a:	6100                	ld	s0,0(a0)
    6100079c:	0000                	unimp
    6100079e:	0000                	unimp
    610007a0:	613a                	ld	sp,392(sp)
    610007a2:	6100                	ld	s0,0(a0)
    610007a4:	0000                	unimp
    610007a6:	0000                	unimp
    610007a8:	613a                	ld	sp,392(sp)
    610007aa:	6100                	ld	s0,0(a0)
    610007ac:	0000                	unimp
    610007ae:	0000                	unimp
    610007b0:	613a                	ld	sp,392(sp)
    610007b2:	6100                	ld	s0,0(a0)
    610007b4:	0000                	unimp
    610007b6:	0000                	unimp
    610007b8:	613a                	ld	sp,392(sp)
    610007ba:	6100                	ld	s0,0(a0)
    610007bc:	0000                	unimp
    610007be:	0000                	unimp
    610007c0:	613a                	ld	sp,392(sp)
    610007c2:	6100                	ld	s0,0(a0)
    610007c4:	0000                	unimp
    610007c6:	0000                	unimp
    610007c8:	613a                	ld	sp,392(sp)
    610007ca:	6100                	ld	s0,0(a0)
    610007cc:	0000                	unimp
    610007ce:	0000                	unimp
    610007d0:	613a                	ld	sp,392(sp)
    610007d2:	6100                	ld	s0,0(a0)
    610007d4:	0000                	unimp
    610007d6:	0000                	unimp
    610007d8:	613a                	ld	sp,392(sp)
    610007da:	6100                	ld	s0,0(a0)
    610007dc:	0000                	unimp
    610007de:	0000                	unimp
    610007e0:	613a                	ld	sp,392(sp)
    610007e2:	6100                	ld	s0,0(a0)
    610007e4:	0000                	unimp
    610007e6:	0000                	unimp
    610007e8:	613a                	ld	sp,392(sp)
    610007ea:	6100                	ld	s0,0(a0)
    610007ec:	0000                	unimp
    610007ee:	0000                	unimp
    610007f0:	613a                	ld	sp,392(sp)
    610007f2:	6100                	ld	s0,0(a0)
    610007f4:	0000                	unimp
    610007f6:	0000                	unimp
    610007f8:	613a                	ld	sp,392(sp)
    610007fa:	6100                	ld	s0,0(a0)
    610007fc:	0000                	unimp
    610007fe:	0000                	unimp
    61000800:	613a                	ld	sp,392(sp)
    61000802:	6100                	ld	s0,0(a0)
    61000804:	0000                	unimp
    61000806:	0000                	unimp
    61000808:	613a                	ld	sp,392(sp)
    6100080a:	6100                	ld	s0,0(a0)
    6100080c:	0000                	unimp
    6100080e:	0000                	unimp
    61000810:	613a                	ld	sp,392(sp)
    61000812:	6100                	ld	s0,0(a0)
    61000814:	0000                	unimp
    61000816:	0000                	unimp
    61000818:	613a                	ld	sp,392(sp)
    6100081a:	6100                	ld	s0,0(a0)
    6100081c:	0000                	unimp
    6100081e:	0000                	unimp
    61000820:	613a                	ld	sp,392(sp)
    61000822:	6100                	ld	s0,0(a0)
    61000824:	0000                	unimp
	...

0000000061000828 <_start>:
 * Reset Handler called on controller reset
 */
_start:
    /* ===== Startup Stage 1 ===== */
    /* Disable Global Interrupt */
    csrc CSR_MSTATUS, MSTATUS_MIE
    61000828:	30047073          	csrci	mstatus,8

    /* Initialize GP and Stack Pointer SP */
    .option push
    .option norelax
    la gp, __global_pointer$
    6100082c:	00020197          	auipc	gp,0x20
    61000830:	1d418193          	addi	gp,gp,468 # 61020a00 <__global_pointer$>
    .option pop
    la sp, _sp
    61000834:	0003f117          	auipc	sp,0x3f
    61000838:	7cc10113          	addi	sp,sp,1996 # 61040000 <_sp>
    /*
     * Set the the NMI base mnvec to share
     * with mtvec by setting CSR_MMISC_CTL
     * bit 9 NMI_CAUSE_FFF to 1
     */
    li t0, MMISC_CTL_NMI_CAUSE_FFF
    6100083c:	20000293          	li	t0,512
    csrs CSR_MMISC_CTL, t0
    61000840:	7d02a073          	csrs	mmisc_ctl,t0

    li t0, MMISC_CTL_BPU
    61000844:	42a1                	li	t0,8
    csrs CSR_MMISC_CTL, t0
    61000846:	7d02a073          	csrs	mmisc_ctl,t0

    /*
     * Intialize ECLIC vector interrupt
     * base address mtvt to vector_base
     */
    la t0, vector_base
    6100084a:	00000297          	auipc	t0,0x0
    6100084e:	bc628293          	addi	t0,t0,-1082 # 61000410 <vector_base>
    csrw CSR_MTVT, t0
    61000852:	30729073          	csrw	mtvt,t0
     * Set ECLIC non-vector entry to be controlled
     * by mtvt2 CSR register.
     * Intialize ECLIC non-vector interrupt
     * base address mtvt2 to irq_entry.
     */
    la t0, irq_entry
    61000856:	00006297          	auipc	t0,0x6
    6100085a:	86a28293          	addi	t0,t0,-1942 # 610060c0 <irq_entry>
    csrw CSR_MTVT2, t0
    6100085e:	7ec29073          	csrw	mtvt2,t0
    csrs CSR_MTVT2, 0x1
    61000862:	7ec0e073          	csrsi	mtvt2,1
    /*
     * Set Exception Entry MTVEC to exc_entry
     * Due to settings above, Exception and NMI
     * will share common entry.
     */
    la t0, exc_entry
    61000866:	00005297          	auipc	t0,0x5
    6100086a:	7da28293          	addi	t0,t0,2010 # 61006040 <exc_entry>
    csrw CSR_MTVEC, t0
    6100086e:	30529073          	csrw	mtvec,t0

    /* Set the interrupt processing mode to ECLIC mode */
    li t0, 0x3f
    61000872:	03f00293          	li	t0,63
    csrc CSR_MTVEC, t0
    61000876:	3052b073          	csrc	mtvec,t0
    csrs CSR_MTVEC, 0x3
    6100087a:	3051e073          	csrsi	mtvec,3
    csrs mstatus, t0
    csrw fcsr, x0
#endif

    /* Enable mcycle and minstret counter */
    csrci CSR_MCOUNTINHIBIT, 0x5
    6100087e:	3202f073          	csrci	mcountinhibit,5
    /* ===== Startup Stage 3 ===== */
    /*
     * Load code section from FLASH to ILM
     * when code LMA is different with VMA
     */
    la a0, _ilm_lma
    61000882:	00000517          	auipc	a0,0x0
    61000886:	0aa50513          	addi	a0,a0,170 # 6100092c <_ilm>
    la a1, _ilm
    6100088a:	00000597          	auipc	a1,0x0
    6100088e:	0a258593          	addi	a1,a1,162 # 6100092c <_ilm>
    /* If the ILM phy-address same as the logic-address, then quit */
    beq a0, a1, 2f
    61000892:	02b50063          	beq	a0,a1,610008b2 <_start+0x8a>
    la a2, _eilm
    61000896:	00009617          	auipc	a2,0x9
    6100089a:	27260613          	addi	a2,a2,626 # 61009b08 <__fsymtab_end>
    bgeu a1, a2, 2f
    6100089e:	00c5fa63          	bgeu	a1,a2,610008b2 <_start+0x8a>

1:
    /* Load code section if necessary */
    lw t0, (a0)
    610008a2:	00052283          	lw	t0,0(a0)
    sw t0, (a1)
    610008a6:	0055a023          	sw	t0,0(a1)
    addi a0, a0, 4
    610008aa:	0511                	addi	a0,a0,4
    addi a1, a1, 4
    610008ac:	0591                	addi	a1,a1,4
    bltu a1, a2, 1b
    610008ae:	fec5eae3          	bltu	a1,a2,610008a2 <_start+0x7a>
2:
    /* Load data section */
    la a0, _data_lma
    610008b2:	00009517          	auipc	a0,0x9
    610008b6:	25650513          	addi	a0,a0,598 # 61009b08 <__fsymtab_end>
    la a1, _data
    610008ba:	0001f597          	auipc	a1,0x1f
    610008be:	74658593          	addi	a1,a1,1862 # 61020000 <_object_container>
    la a2, _edata
    610008c2:	00020617          	auipc	a2,0x20
    610008c6:	97660613          	addi	a2,a2,-1674 # 61020238 <errno>
    bgeu a1, a2, 2f
    610008ca:	00c5fa63          	bgeu	a1,a2,610008de <_start+0xb6>
1:
    lw t0, (a0)
    610008ce:	00052283          	lw	t0,0(a0)
    sw t0, (a1)
    610008d2:	0055a023          	sw	t0,0(a1)
    addi a0, a0, 4
    610008d6:	0511                	addi	a0,a0,4
    addi a1, a1, 4
    610008d8:	0591                	addi	a1,a1,4
    bltu a1, a2, 1b
    610008da:	fec5eae3          	bltu	a1,a2,610008ce <_start+0xa6>
2:
    /* Clear bss section */
    la a0, __bss_start
    610008de:	00020517          	auipc	a0,0x20
    610008e2:	95a50513          	addi	a0,a0,-1702 # 61020238 <errno>
    la a1, _end
    610008e6:	72018593          	addi	a1,gp,1824 # 61021120 <_end>
    bgeu a0, a1, 2f
    610008ea:	00b57763          	bgeu	a0,a1,610008f8 <_start+0xd0>
1:
    sw zero, (a0)
    610008ee:	00052023          	sw	zero,0(a0)
    addi a0, a0, 4
    610008f2:	0511                	addi	a0,a0,4
    bltu a0, a1, 1b
    610008f4:	feb56de3          	bltu	a0,a1,610008ee <_start+0xc6>

    /*
     * Call vendor defined SystemInit to
     * initialize the micro-controller system
     */
    call SystemInit
    610008f8:	224000ef          	jal	ra,61000b1c <SystemInit>

    /* Call global constructors */
    la a0, __libc_fini_array
    610008fc:	00006517          	auipc	a0,0x6
    61000900:	76650513          	addi	a0,a0,1894 # 61007062 <__libc_fini_array>
    call atexit
    61000904:	754060ef          	jal	ra,61007058 <atexit>
    /* Call C/C++ constructor start up code */
    call __libc_init_array
    61000908:	504060ef          	jal	ra,61006e0c <__libc_init_array>

    /* do pre-init steps before main */
    call _premain_init
    6100090c:	5a0000ef          	jal	ra,61000eac <_premain_init>
    /* ===== Call Main Function  ===== */
    /* argc = argv = 0 */
    li a0, 0
    61000910:	4501                	li	a0,0
    li a1, 0
    61000912:	4581                	li	a1,0

#ifdef RTOS_RTTHREAD
    // Call entry function when using RT-Thread
    call entry
    61000914:	180040ef          	jal	ra,61004a94 <entry>
#else
    call main
#endif
    /* do post-main steps after main */
    call _postmain_fini
    61000918:	5c0000ef          	jal	ra,61000ed8 <_postmain_fini>

1:
    j 1b
    6100091c:	a001                	j	6100091c <_start+0xf4>

000000006100091e <__sync_harts>:
 */
#define CLINT_MSIP(base, hartid)    (*(volatile uint32_t *)((uintptr_t)((base) + ((hartid) * 4))))
#define SMP_CTRLREG(base, ofs)      (*(volatile uint32_t *)((uintptr_t)((base) + (ofs))))

__attribute__((section(".init"))) void __sync_harts(void)
{
    6100091e:	1141                	addi	sp,sp,-16
    61000920:	e422                	sd	s0,8(sp)
    61000922:	0800                	addi	s0,sp,16
        __SMP_RWMB();
        // wait for pending bit cleared by boot hart
        while (CLINT_MSIP(clint_base, hartid) == 1);
    }
#endif
}
    61000924:	0001                	nop
    61000926:	6422                	ld	s0,8(sp)
    61000928:	0141                	addi	sp,sp,16
    6100092a:	8082                	ret

Disassembly of section .text:

0000000061000940 <rt_hw_board_init>:
/**
 * @brief Setup hardware board for rt-thread
 *
 */
void rt_hw_board_init(void)
{
    61000940:	1101                	addi	sp,sp,-32
    61000942:	ec06                	sd	ra,24(sp)
    61000944:	e822                	sd	s0,16(sp)
    61000946:	1000                	addi	s0,sp,32
    /* OS Tick Configuration */
    rt_hw_ticksetup();
    61000948:	4b9050ef          	jal	ra,61006600 <rt_hw_ticksetup>
 * \remarks
 *          Can only be executed in Privileged modes.
 */
__STATIC_FORCEINLINE void __enable_irq(void)
{
    __RV_CSR_SET(CSR_MSTATUS, MSTATUS_MIE);
    6100094c:	47a1                	li	a5,8
    6100094e:	fef43423          	sd	a5,-24(s0)
    61000952:	fe843783          	ld	a5,-24(s0)
    61000956:	3007a073          	csrs	mstatus,a5
}
    6100095a:	0001                	nop

    /* enable interrupt */
    __enable_irq();

#ifdef RT_USING_HEAP
    rt_system_heap_init((void *) HEAP_BEGIN, (void *) HEAP_END);
    6100095c:	0003e597          	auipc	a1,0x3e
    61000960:	6a458593          	addi	a1,a1,1700 # 6103f000 <_heap_end>
    61000964:	72018513          	addi	a0,gp,1824 # 61021120 <_end>
    61000968:	60b030ef          	jal	ra,61004772 <rt_system_heap_init>
#endif

    _init(); // __libc_init_array is not used in RT-Thread
    6100096c:	580000ef          	jal	ra,61000eec <_init>
    rt_hw_uart_init();
#endif

    /* Set the shell console output device */
#if defined(RT_USING_CONSOLE) && defined(RT_USING_DEVICE)
    rt_console_set_device(RT_CONSOLE_DEVICE_NAME);
    61000970:	00007517          	auipc	a0,0x7
    61000974:	7c850513          	addi	a0,a0,1992 # 61008138 <memchr+0x1a>
    61000978:	45f030ef          	jal	ra,610045d6 <rt_console_set_device>
#endif

    /* Board underlying hardware initialization */
#ifdef RT_USING_COMPONENTS_INIT
    rt_components_board_init();
    6100097c:	090040ef          	jal	ra,61004a0c <rt_components_board_init>
#endif
}
    61000980:	0001                	nop
    61000982:	60e2                	ld	ra,24(sp)
    61000984:	6442                	ld	s0,16(sp)
    61000986:	6105                	addi	sp,sp,32
    61000988:	8082                	ret

000000006100098a <rt_hw_console_output>:


extern ssize_t _write(int fd, const void* ptr, size_t len);

void rt_hw_console_output(const char* str)
{
    6100098a:	7179                	addi	sp,sp,-48
    6100098c:	f406                	sd	ra,40(sp)
    6100098e:	f022                	sd	s0,32(sp)
    61000990:	1800                	addi	s0,sp,48
    61000992:	fca43c23          	sd	a0,-40(s0)
    rt_size_t size = 0;
    61000996:	fe043423          	sd	zero,-24(s0)
    char cr = '\r';
    6100099a:	47b5                	li	a5,13
    6100099c:	fef403a3          	sb	a5,-25(s0)

    rt_enter_critical();
    610009a0:	7c3000ef          	jal	ra,61001962 <rt_enter_critical>
    
    size = rt_strlen(str);
    610009a4:	fd843503          	ld	a0,-40(s0)
    610009a8:	02c030ef          	jal	ra,610039d4 <rt_strlen>
    610009ac:	fea43423          	sd	a0,-24(s0)

    _write(STDOUT_FILENO, str, size);
    610009b0:	fe843603          	ld	a2,-24(s0)
    610009b4:	fd843583          	ld	a1,-40(s0)
    610009b8:	4505                	li	a0,1
    610009ba:	54e000ef          	jal	ra,61000f08 <_write>

    _write(STDOUT_FILENO, &cr, 1);
    610009be:	fe740793          	addi	a5,s0,-25
    610009c2:	4605                	li	a2,1
    610009c4:	85be                	mv	a1,a5
    610009c6:	4505                	li	a0,1
    610009c8:	540000ef          	jal	ra,61000f08 <_write>

    rt_exit_critical();
    610009cc:	7db000ef          	jal	ra,610019a6 <rt_exit_critical>
}
    610009d0:	0001                	nop
    610009d2:	70a2                	ld	ra,40(sp)
    610009d4:	7402                	ld	s0,32(sp)
    610009d6:	6145                	addi	sp,sp,48
    610009d8:	8082                	ret

00000000610009da <_fstat>:

#undef errno
extern int errno;

__WEAK int _fstat(int file, struct stat* st)
{
    610009da:	1101                	addi	sp,sp,-32
    610009dc:	ec22                	sd	s0,24(sp)
    610009de:	1000                	addi	s0,sp,32
    610009e0:	87aa                	mv	a5,a0
    610009e2:	feb43023          	sd	a1,-32(s0)
    610009e6:	fef42623          	sw	a5,-20(s0)
    if ((STDOUT_FILENO == file) || (STDERR_FILENO == file)) {
    610009ea:	fec42783          	lw	a5,-20(s0)
    610009ee:	0007871b          	sext.w	a4,a5
    610009f2:	4785                	li	a5,1
    610009f4:	00f70963          	beq	a4,a5,61000a06 <_fstat+0x2c>
    610009f8:	fec42783          	lw	a5,-20(s0)
    610009fc:	0007871b          	sext.w	a4,a5
    61000a00:	4789                	li	a5,2
    61000a02:	00f71863          	bne	a4,a5,61000a12 <_fstat+0x38>
        st->st_mode = S_IFCHR;
    61000a06:	fe043783          	ld	a5,-32(s0)
    61000a0a:	6709                	lui	a4,0x2
    61000a0c:	c3d8                	sw	a4,4(a5)
        return 0;
    61000a0e:	4781                	li	a5,0
    61000a10:	a801                	j	61000a20 <_fstat+0x46>
    } else {
        errno = EBADF;
    61000a12:	00020797          	auipc	a5,0x20
    61000a16:	82678793          	addi	a5,a5,-2010 # 61020238 <errno>
    61000a1a:	4725                	li	a4,9
    61000a1c:	c398                	sw	a4,0(a5)
        return -1;
    61000a1e:	57fd                	li	a5,-1
    }
}
    61000a20:	853e                	mv	a0,a5
    61000a22:	6462                	ld	s0,24(sp)
    61000a24:	6105                	addi	sp,sp,32
    61000a26:	8082                	ret

0000000061000a28 <_close>:

#undef errno
extern int errno;

__WEAK int _close(int fd)
{
    61000a28:	1101                	addi	sp,sp,-32
    61000a2a:	ec22                	sd	s0,24(sp)
    61000a2c:	1000                	addi	s0,sp,32
    61000a2e:	87aa                	mv	a5,a0
    61000a30:	fef42623          	sw	a5,-20(s0)
    errno = EBADF;
    61000a34:	00020797          	auipc	a5,0x20
    61000a38:	80478793          	addi	a5,a5,-2044 # 61020238 <errno>
    61000a3c:	4725                	li	a4,9
    61000a3e:	c398                	sw	a4,0(a5)
    return -1;
    61000a40:	57fd                	li	a5,-1
}
    61000a42:	853e                	mv	a0,a5
    61000a44:	6462                	ld	s0,24(sp)
    61000a46:	6105                	addi	sp,sp,32
    61000a48:	8082                	ret

0000000061000a4a <_isatty>:
/* See LICENSE of license details. */
#include "nuclei_sdk_soc.h"
#include <unistd.h>

__WEAK int _isatty(int fd)
{
    61000a4a:	1101                	addi	sp,sp,-32
    61000a4c:	ec22                	sd	s0,24(sp)
    61000a4e:	1000                	addi	s0,sp,32
    61000a50:	87aa                	mv	a5,a0
    61000a52:	fef42623          	sw	a5,-20(s0)
    return 1;
    61000a56:	4785                	li	a5,1
}
    61000a58:	853e                	mv	a0,a5
    61000a5a:	6462                	ld	s0,24(sp)
    61000a5c:	6105                	addi	sp,sp,32
    61000a5e:	8082                	ret

0000000061000a60 <_lseek>:

#undef errno
extern int errno;

__WEAK int _lseek(int file, int offset, int whence)
{
    61000a60:	1101                	addi	sp,sp,-32
    61000a62:	ec22                	sd	s0,24(sp)
    61000a64:	1000                	addi	s0,sp,32
    61000a66:	87aa                	mv	a5,a0
    61000a68:	86ae                	mv	a3,a1
    61000a6a:	8732                	mv	a4,a2
    61000a6c:	fef42623          	sw	a5,-20(s0)
    61000a70:	87b6                	mv	a5,a3
    61000a72:	fef42423          	sw	a5,-24(s0)
    61000a76:	87ba                	mv	a5,a4
    61000a78:	fef42223          	sw	a5,-28(s0)
    return 0;
    61000a7c:	4781                	li	a5,0
}
    61000a7e:	853e                	mv	a0,a5
    61000a80:	6462                	ld	s0,24(sp)
    61000a82:	6105                	addi	sp,sp,32
    61000a84:	8082                	ret

0000000061000a86 <_sbrk>:
const void * heap_end_ptr   = (const char *)&_heap_end;    /* pointer to end of heap */

static void * cur_heap      = (void *)&_heap_start;

__WEAK void* _sbrk(ptrdiff_t incr)
{
    61000a86:	1101                	addi	sp,sp,-32
    61000a88:	ec22                	sd	s0,24(sp)
    61000a8a:	1000                	addi	s0,sp,32
    61000a8c:	fea43423          	sd	a0,-24(s0)
    if ((cur_heap + incr > heap_end_ptr) ||
    61000a90:	81018793          	addi	a5,gp,-2032 # 61020210 <cur_heap>
    61000a94:	6398                	ld	a4,0(a5)
    61000a96:	fe843783          	ld	a5,-24(s0)
    61000a9a:	973e                	add	a4,a4,a5
    61000a9c:	0001f797          	auipc	a5,0x1f
    61000aa0:	76c78793          	addi	a5,a5,1900 # 61020208 <heap_end_ptr>
    61000aa4:	639c                	ld	a5,0(a5)
    61000aa6:	00e7ef63          	bltu	a5,a4,61000ac4 <_sbrk+0x3e>
        (cur_heap + incr < heap_start_ptr)) {
    61000aaa:	81018793          	addi	a5,gp,-2032 # 61020210 <cur_heap>
    61000aae:	6398                	ld	a4,0(a5)
    61000ab0:	fe843783          	ld	a5,-24(s0)
    61000ab4:	973e                	add	a4,a4,a5
    61000ab6:	0001f797          	auipc	a5,0x1f
    61000aba:	74a78793          	addi	a5,a5,1866 # 61020200 <heap_start_ptr>
    61000abe:	639c                	ld	a5,0(a5)
    if ((cur_heap + incr > heap_end_ptr) ||
    61000ac0:	00f77463          	bgeu	a4,a5,61000ac8 <_sbrk+0x42>
        return (void*)-1;
    61000ac4:	57fd                	li	a5,-1
    61000ac6:	a015                	j	61000aea <_sbrk+0x64>
    } else {
        cur_heap += incr;
    61000ac8:	81018793          	addi	a5,gp,-2032 # 61020210 <cur_heap>
    61000acc:	6398                	ld	a4,0(a5)
    61000ace:	fe843783          	ld	a5,-24(s0)
    61000ad2:	973e                	add	a4,a4,a5
    61000ad4:	81018793          	addi	a5,gp,-2032 # 61020210 <cur_heap>
    61000ad8:	e398                	sd	a4,0(a5)
        return (cur_heap - incr);
    61000ada:	81018793          	addi	a5,gp,-2032 # 61020210 <cur_heap>
    61000ade:	6398                	ld	a4,0(a5)
    61000ae0:	fe843783          	ld	a5,-24(s0)
    61000ae4:	40f007b3          	neg	a5,a5
    61000ae8:	97ba                	add	a5,a5,a4
    }
    61000aea:	853e                	mv	a0,a5
    61000aec:	6462                	ld	s0,24(sp)
    61000aee:	6105                	addi	sp,sp,32
    61000af0:	8082                	ret

0000000061000af2 <_read>:
#include <unistd.h>
#include <sys/types.h>
#include "nuclei_sdk_hal.h"

__WEAK ssize_t _read(int fd, void* ptr, size_t len)
{
    61000af2:	7179                	addi	sp,sp,-48
    61000af4:	f422                	sd	s0,40(sp)
    61000af6:	1800                	addi	s0,sp,48
    61000af8:	87aa                	mv	a5,a0
    61000afa:	feb43023          	sd	a1,-32(s0)
    61000afe:	fcc43c23          	sd	a2,-40(s0)
    61000b02:	fef42623          	sw	a5,-20(s0)
    if (fd != STDIN_FILENO) {
    61000b06:	fec42783          	lw	a5,-20(s0)
    61000b0a:	2781                	sext.w	a5,a5
    61000b0c:	c399                	beqz	a5,61000b12 <_read+0x20>
        return -1;
    61000b0e:	57fd                	li	a5,-1
    61000b10:	a011                	j	61000b14 <_read+0x22>
    }

    return -1;
    61000b12:	57fd                	li	a5,-1
}
    61000b14:	853e                	mv	a0,a5
    61000b16:	7422                	ld	s0,40(sp)
    61000b18:	6145                	addi	sp,sp,48
    61000b1a:	8082                	ret

0000000061000b1c <SystemInit>:
{
    61000b1c:	1141                	addi	sp,sp,-16
    61000b1e:	e422                	sd	s0,8(sp)
    61000b20:	0800                	addi	s0,sp,16
    SystemCoreClock = SYSTEM_CLOCK;
    61000b22:	81818793          	addi	a5,gp,-2024 # 61020218 <SystemCoreClock>
    61000b26:	04c4b737          	lui	a4,0x4c4b
    61000b2a:	40070713          	addi	a4,a4,1024 # 4c4b400 <__stack_size+0x4c4a400>
    61000b2e:	c398                	sw	a4,0(a5)
}
    61000b30:	0001                	nop
    61000b32:	6422                	ld	s0,8(sp)
    61000b34:	0141                	addi	sp,sp,16
    61000b36:	8082                	ret

0000000061000b38 <system_default_exception_handler>:
{
    61000b38:	715d                	addi	sp,sp,-80
    61000b3a:	e486                	sd	ra,72(sp)
    61000b3c:	e0a2                	sd	s0,64(sp)
    61000b3e:	0880                	addi	s0,sp,80
    61000b40:	faa43c23          	sd	a0,-72(s0)
    61000b44:	fab43823          	sd	a1,-80(s0)
    LOG_D("MCAUSE : 0x%lx\r\n", mcause);
    61000b48:	00007517          	auipc	a0,0x7
    61000b4c:	5f850513          	addi	a0,a0,1528 # 61008140 <memchr+0x22>
    61000b50:	2f7030ef          	jal	ra,61004646 <rt_kprintf>
    61000b54:	fb843583          	ld	a1,-72(s0)
    61000b58:	00007517          	auipc	a0,0x7
    61000b5c:	5f850513          	addi	a0,a0,1528 # 61008150 <memchr+0x32>
    61000b60:	2e7030ef          	jal	ra,61004646 <rt_kprintf>
    61000b64:	00007517          	auipc	a0,0x7
    61000b68:	60450513          	addi	a0,a0,1540 # 61008168 <memchr+0x4a>
    61000b6c:	2db030ef          	jal	ra,61004646 <rt_kprintf>
    LOG_D("MDCAUSE: 0x%lx\r\n", __RV_CSR_READ(CSR_MDCAUSE));
    61000b70:	00007517          	auipc	a0,0x7
    61000b74:	5d050513          	addi	a0,a0,1488 # 61008140 <memchr+0x22>
    61000b78:	2cf030ef          	jal	ra,61004646 <rt_kprintf>
    61000b7c:	7c9027f3          	csrr	a5,mdcause
    61000b80:	fef43423          	sd	a5,-24(s0)
    61000b84:	fe843783          	ld	a5,-24(s0)
    61000b88:	85be                	mv	a1,a5
    61000b8a:	00007517          	auipc	a0,0x7
    61000b8e:	5e650513          	addi	a0,a0,1510 # 61008170 <memchr+0x52>
    61000b92:	2b5030ef          	jal	ra,61004646 <rt_kprintf>
    61000b96:	00007517          	auipc	a0,0x7
    61000b9a:	5d250513          	addi	a0,a0,1490 # 61008168 <memchr+0x4a>
    61000b9e:	2a9030ef          	jal	ra,61004646 <rt_kprintf>
    LOG_D("MEPC   : 0x%lx\r\n", __RV_CSR_READ(CSR_MEPC));
    61000ba2:	00007517          	auipc	a0,0x7
    61000ba6:	59e50513          	addi	a0,a0,1438 # 61008140 <memchr+0x22>
    61000baa:	29d030ef          	jal	ra,61004646 <rt_kprintf>
    61000bae:	341027f3          	csrr	a5,mepc
    61000bb2:	fef43023          	sd	a5,-32(s0)
    61000bb6:	fe043783          	ld	a5,-32(s0)
    61000bba:	85be                	mv	a1,a5
    61000bbc:	00007517          	auipc	a0,0x7
    61000bc0:	5cc50513          	addi	a0,a0,1484 # 61008188 <memchr+0x6a>
    61000bc4:	283030ef          	jal	ra,61004646 <rt_kprintf>
    61000bc8:	00007517          	auipc	a0,0x7
    61000bcc:	5a050513          	addi	a0,a0,1440 # 61008168 <memchr+0x4a>
    61000bd0:	277030ef          	jal	ra,61004646 <rt_kprintf>
    LOG_D("MTVAL  : 0x%lx\r\n", __RV_CSR_READ(CSR_MTVAL));
    61000bd4:	00007517          	auipc	a0,0x7
    61000bd8:	56c50513          	addi	a0,a0,1388 # 61008140 <memchr+0x22>
    61000bdc:	26b030ef          	jal	ra,61004646 <rt_kprintf>
    61000be0:	343027f3          	csrr	a5,mtval
    61000be4:	fcf43c23          	sd	a5,-40(s0)
    61000be8:	fd843783          	ld	a5,-40(s0)
    61000bec:	85be                	mv	a1,a5
    61000bee:	00007517          	auipc	a0,0x7
    61000bf2:	5b250513          	addi	a0,a0,1458 # 610081a0 <memchr+0x82>
    61000bf6:	251030ef          	jal	ra,61004646 <rt_kprintf>
    61000bfa:	00007517          	auipc	a0,0x7
    61000bfe:	56e50513          	addi	a0,a0,1390 # 61008168 <memchr+0x4a>
    61000c02:	245030ef          	jal	ra,61004646 <rt_kprintf>
    LOG_D("HARTID : %u\r\n", (unsigned int)__get_hart_id());
    61000c06:	00007517          	auipc	a0,0x7
    61000c0a:	53a50513          	addi	a0,a0,1338 # 61008140 <memchr+0x22>
    61000c0e:	239030ef          	jal	ra,61004646 <rt_kprintf>
 */
__STATIC_FORCEINLINE unsigned long __get_hart_id(void)
{
    unsigned long id;

    id = __RV_CSR_READ(CSR_MHARTID) & 0xFF;
    61000c12:	f14027f3          	csrr	a5,mhartid
    61000c16:	fcf43823          	sd	a5,-48(s0)
    61000c1a:	fd043783          	ld	a5,-48(s0)
    61000c1e:	0ff7f793          	zext.b	a5,a5
    61000c22:	fcf43423          	sd	a5,-56(s0)
    return id;
    61000c26:	fc843783          	ld	a5,-56(s0)
    61000c2a:	2781                	sext.w	a5,a5
    61000c2c:	85be                	mv	a1,a5
    61000c2e:	00007517          	auipc	a0,0x7
    61000c32:	58a50513          	addi	a0,a0,1418 # 610081b8 <memchr+0x9a>
    61000c36:	211030ef          	jal	ra,61004646 <rt_kprintf>
    61000c3a:	00007517          	auipc	a0,0x7
    61000c3e:	52e50513          	addi	a0,a0,1326 # 61008168 <memchr+0x4a>
    61000c42:	205030ef          	jal	ra,61004646 <rt_kprintf>
    Exception_DumpFrame(sp, PRV_M);
    61000c46:	458d                	li	a1,3
    61000c48:	fb043503          	ld	a0,-80(s0)
    61000c4c:	006000ef          	jal	ra,61000c52 <Exception_DumpFrame>
    while (1);
    61000c50:	a001                	j	61000c50 <system_default_exception_handler+0x118>

0000000061000c52 <Exception_DumpFrame>:
{
    61000c52:	7171                	addi	sp,sp,-176
    61000c54:	f506                	sd	ra,168(sp)
    61000c56:	f122                	sd	s0,160(sp)
    61000c58:	ed26                	sd	s1,152(sp)
    61000c5a:	e94a                	sd	s2,144(sp)
    61000c5c:	e54e                	sd	s3,136(sp)
    61000c5e:	1900                	addi	s0,sp,176
    61000c60:	faa43c23          	sd	a0,-72(s0)
    61000c64:	87ae                	mv	a5,a1
    61000c66:	faf40ba3          	sb	a5,-73(s0)
    EXC_Frame_Type *exc_frame = (EXC_Frame_Type *)sp;
    61000c6a:	fb843783          	ld	a5,-72(s0)
    61000c6e:	fcf43423          	sd	a5,-56(s0)
    printf("ra: 0x%lx, tp: 0x%lx, t0: 0x%lx, t1: 0x%lx, t2: 0x%lx, t3: 0x%lx, t4: 0x%lx, t5: 0x%lx, t6: 0x%lx\n" \
    61000c72:	fc843783          	ld	a5,-56(s0)
    61000c76:	0007bf83          	ld	t6,0(a5)
    61000c7a:	fc843783          	ld	a5,-56(s0)
    61000c7e:	0087b283          	ld	t0,8(a5)
    61000c82:	fc843783          	ld	a5,-56(s0)
    61000c86:	0107b383          	ld	t2,16(a5)
    61000c8a:	fc843783          	ld	a5,-56(s0)
    61000c8e:	0187b083          	ld	ra,24(a5)
    61000c92:	fc843783          	ld	a5,-56(s0)
    61000c96:	7384                	ld	s1,32(a5)
    61000c98:	fc843783          	ld	a5,-56(s0)
    61000c9c:	0807b903          	ld	s2,128(a5)
    61000ca0:	fc843783          	ld	a5,-56(s0)
    61000ca4:	0887b983          	ld	s3,136(a5)
    61000ca8:	fc843783          	ld	a5,-56(s0)
    61000cac:	6bdc                	ld	a5,144(a5)
    61000cae:	fc843703          	ld	a4,-56(s0)
    61000cb2:	6f58                	ld	a4,152(a4)
    61000cb4:	fc843683          	ld	a3,-56(s0)
    61000cb8:	7694                	ld	a3,40(a3)
    61000cba:	fc843603          	ld	a2,-56(s0)
    61000cbe:	7a10                	ld	a2,48(a2)
    61000cc0:	fc843583          	ld	a1,-56(s0)
    61000cc4:	7d8c                	ld	a1,56(a1)
    61000cc6:	fc843503          	ld	a0,-56(s0)
    61000cca:	6128                	ld	a0,64(a0)
    61000ccc:	fc843803          	ld	a6,-56(s0)
    61000cd0:	04883803          	ld	a6,72(a6)
    61000cd4:	fc843883          	ld	a7,-56(s0)
    61000cd8:	0508b883          	ld	a7,80(a7)
    61000cdc:	fc843303          	ld	t1,-56(s0)
    61000ce0:	07033303          	ld	t1,112(t1)
    61000ce4:	fc843e03          	ld	t3,-56(s0)
    61000ce8:	078e3e03          	ld	t3,120(t3)
    61000cec:	fc843e83          	ld	t4,-56(s0)
    61000cf0:	058ebe83          	ld	t4,88(t4)
    61000cf4:	fc843f03          	ld	t5,-56(s0)
    61000cf8:	060f3f03          	ld	t5,96(t5)
    61000cfc:	ecfa                	sd	t5,88(sp)
    61000cfe:	e8f6                	sd	t4,80(sp)
    61000d00:	e4f2                	sd	t3,72(sp)
    61000d02:	e09a                	sd	t1,64(sp)
    61000d04:	fc46                	sd	a7,56(sp)
    61000d06:	f842                	sd	a6,48(sp)
    61000d08:	f42a                	sd	a0,40(sp)
    61000d0a:	f02e                	sd	a1,32(sp)
    61000d0c:	ec32                	sd	a2,24(sp)
    61000d0e:	e836                	sd	a3,16(sp)
    61000d10:	e43a                	sd	a4,8(sp)
    61000d12:	e03e                	sd	a5,0(sp)
    61000d14:	88ce                	mv	a7,s3
    61000d16:	884a                	mv	a6,s2
    61000d18:	87a6                	mv	a5,s1
    61000d1a:	8706                	mv	a4,ra
    61000d1c:	869e                	mv	a3,t2
    61000d1e:	8616                	mv	a2,t0
    61000d20:	85fe                	mv	a1,t6
    61000d22:	00007517          	auipc	a0,0x7
    61000d26:	4a650513          	addi	a0,a0,1190 # 610081c8 <memchr+0xaa>
    61000d2a:	36e060ef          	jal	ra,61007098 <iprintf>
    if (PRV_M == mode) {
    61000d2e:	fb744783          	lbu	a5,-73(s0)
    61000d32:	0ff7f713          	zext.b	a4,a5
    61000d36:	478d                	li	a5,3
    61000d38:	00f71c63          	bne	a4,a5,61000d50 <Exception_DumpFrame+0xfe>
        printf("msubm: 0x%lx\n", exc_frame->msubm);
    61000d3c:	fc843783          	ld	a5,-56(s0)
    61000d40:	77bc                	ld	a5,104(a5)
    61000d42:	85be                	mv	a1,a5
    61000d44:	00007517          	auipc	a0,0x7
    61000d48:	55c50513          	addi	a0,a0,1372 # 610082a0 <memchr+0x182>
    61000d4c:	34c060ef          	jal	ra,61007098 <iprintf>
}
    61000d50:	0001                	nop
    61000d52:	70aa                	ld	ra,168(sp)
    61000d54:	740a                	ld	s0,160(sp)
    61000d56:	64ea                	ld	s1,152(sp)
    61000d58:	694a                	ld	s2,144(sp)
    61000d5a:	69aa                	ld	s3,136(sp)
    61000d5c:	614d                	addi	sp,sp,176
    61000d5e:	8082                	ret

0000000061000d60 <core_exception_handler>:
{
    61000d60:	7179                	addi	sp,sp,-48
    61000d62:	f406                	sd	ra,40(sp)
    61000d64:	f022                	sd	s0,32(sp)
    61000d66:	1800                	addi	s0,sp,48
    61000d68:	fca43c23          	sd	a0,-40(s0)
    61000d6c:	fcb43823          	sd	a1,-48(s0)
    uint32_t EXCn = (uint32_t)(mcause & 0X00000fff);
    61000d70:	fd843783          	ld	a5,-40(s0)
    61000d74:	2781                	sext.w	a5,a5
    61000d76:	873e                	mv	a4,a5
    61000d78:	6785                	lui	a5,0x1
    61000d7a:	17fd                	addi	a5,a5,-1
    61000d7c:	8ff9                	and	a5,a5,a4
    61000d7e:	fef42223          	sw	a5,-28(s0)
    if (EXCn < MAX_SYSTEM_EXCEPTION_NUM) {
    61000d82:	fe442783          	lw	a5,-28(s0)
    61000d86:	0007871b          	sext.w	a4,a5
    61000d8a:	47bd                	li	a5,15
    61000d8c:	00e7ec63          	bltu	a5,a4,61000da4 <core_exception_handler+0x44>
        exc_handler = (EXC_HANDLER)SystemExceptionHandlers[EXCn];
    61000d90:	95018713          	addi	a4,gp,-1712 # 61020350 <SystemExceptionHandlers>
    61000d94:	fe446783          	lwu	a5,-28(s0)
    61000d98:	078e                	slli	a5,a5,0x3
    61000d9a:	97ba                	add	a5,a5,a4
    61000d9c:	639c                	ld	a5,0(a5)
    61000d9e:	fef43423          	sd	a5,-24(s0)
    61000da2:	a02d                	j	61000dcc <core_exception_handler+0x6c>
    } else if (EXCn == NMI_EXCn) {
    61000da4:	fe442783          	lw	a5,-28(s0)
    61000da8:	0007871b          	sext.w	a4,a5
    61000dac:	6785                	lui	a5,0x1
    61000dae:	17fd                	addi	a5,a5,-1
    61000db0:	00f71863          	bne	a4,a5,61000dc0 <core_exception_handler+0x60>
        exc_handler = (EXC_HANDLER)SystemExceptionHandlers[MAX_SYSTEM_EXCEPTION_NUM];
    61000db4:	95018793          	addi	a5,gp,-1712 # 61020350 <SystemExceptionHandlers>
    61000db8:	63dc                	ld	a5,128(a5)
    61000dba:	fef43423          	sd	a5,-24(s0)
    61000dbe:	a039                	j	61000dcc <core_exception_handler+0x6c>
        exc_handler = (EXC_HANDLER)system_default_exception_handler;
    61000dc0:	00000797          	auipc	a5,0x0
    61000dc4:	d7878793          	addi	a5,a5,-648 # 61000b38 <system_default_exception_handler>
    61000dc8:	fef43423          	sd	a5,-24(s0)
    if (exc_handler != NULL) {
    61000dcc:	fe843783          	ld	a5,-24(s0)
    61000dd0:	cb81                	beqz	a5,61000de0 <core_exception_handler+0x80>
        exc_handler(mcause, sp);
    61000dd2:	fe843783          	ld	a5,-24(s0)
    61000dd6:	fd043583          	ld	a1,-48(s0)
    61000dda:	fd843503          	ld	a0,-40(s0)
    61000dde:	9782                	jalr	a5
    return 0;
    61000de0:	4781                	li	a5,0
}
    61000de2:	853e                	mv	a0,a5
    61000de4:	70a2                	ld	ra,40(sp)
    61000de6:	7402                	ld	s0,32(sp)
    61000de8:	6145                	addi	sp,sp,48
    61000dea:	8082                	ret

0000000061000dec <SystemBannerPrint>:
{
    61000dec:	1141                	addi	sp,sp,-16
    61000dee:	e422                	sd	s0,8(sp)
    61000df0:	0800                	addi	s0,sp,16
}
    61000df2:	0001                	nop
    61000df4:	6422                	ld	s0,8(sp)
    61000df6:	0141                	addi	sp,sp,16
    61000df8:	8082                	ret

0000000061000dfa <ECLIC_Init>:
{
    61000dfa:	1101                	addi	sp,sp,-32
    61000dfc:	ec22                	sd	s0,24(sp)
    61000dfe:	1000                	addi	s0,sp,32
    61000e00:	fe0405a3          	sb	zero,-21(s0)
 * \sa
 * - \ref ECLIC_GetMth
 */
__STATIC_FORCEINLINE void __ECLIC_SetMth(uint8_t mth)
{
    ECLIC->MTH = mth;
    61000e04:	680207b7          	lui	a5,0x68020
    61000e08:	feb44703          	lbu	a4,-21(s0)
    61000e0c:	00e785a3          	sb	a4,11(a5) # 6802000b <_sp+0x6fe000b>
}
    61000e10:	0001                	nop
    return ((uint32_t)((ECLIC->INFO & CLIC_CLICINFO_CTLBIT_Msk) >> CLIC_CLICINFO_CTLBIT_Pos));
    61000e12:	680207b7          	lui	a5,0x68020
    61000e16:	43dc                	lw	a5,4(a5)
    61000e18:	2781                	sext.w	a5,a5
    61000e1a:	1782                	slli	a5,a5,0x20
    61000e1c:	9381                	srli	a5,a5,0x20
    61000e1e:	83d5                	srli	a5,a5,0x15
    61000e20:	2781                	sext.w	a5,a5
    61000e22:	8bbd                	andi	a5,a5,15
    61000e24:	2781                	sext.w	a5,a5
    61000e26:	2781                	sext.w	a5,a5
    ECLIC_SetCfgNlbits(__ECLIC_INTCTLBITS);
    61000e28:	2781                	sext.w	a5,a5
    61000e2a:	fef42623          	sw	a5,-20(s0)
    ECLIC->CFG &= ~CLIC_CLICCFG_NLBIT_Msk;
    61000e2e:	680207b7          	lui	a5,0x68020
    61000e32:	0007c783          	lbu	a5,0(a5) # 68020000 <_sp+0x6fe0000>
    61000e36:	0ff7f713          	zext.b	a4,a5
    61000e3a:	680207b7          	lui	a5,0x68020
    61000e3e:	9b05                	andi	a4,a4,-31
    61000e40:	0ff77713          	zext.b	a4,a4
    61000e44:	00e78023          	sb	a4,0(a5) # 68020000 <_sp+0x6fe0000>
    ECLIC->CFG |= (uint8_t)((nlbits <<CLIC_CLICCFG_NLBIT_Pos) & CLIC_CLICCFG_NLBIT_Msk);
    61000e48:	680207b7          	lui	a5,0x68020
    61000e4c:	0007c783          	lbu	a5,0(a5) # 68020000 <_sp+0x6fe0000>
    61000e50:	0ff7f793          	zext.b	a5,a5
    61000e54:	0187971b          	slliw	a4,a5,0x18
    61000e58:	4187571b          	sraiw	a4,a4,0x18
    61000e5c:	fec42783          	lw	a5,-20(s0)
    61000e60:	0ff7f793          	zext.b	a5,a5
    61000e64:	0017979b          	slliw	a5,a5,0x1
    61000e68:	0ff7f793          	zext.b	a5,a5
    61000e6c:	0187979b          	slliw	a5,a5,0x18
    61000e70:	4187d79b          	sraiw	a5,a5,0x18
    61000e74:	8bf9                	andi	a5,a5,30
    61000e76:	0187979b          	slliw	a5,a5,0x18
    61000e7a:	4187d79b          	sraiw	a5,a5,0x18
    61000e7e:	8fd9                	or	a5,a5,a4
    61000e80:	0187971b          	slliw	a4,a5,0x18
    61000e84:	4187571b          	sraiw	a4,a4,0x18
    61000e88:	680207b7          	lui	a5,0x68020
    61000e8c:	0ff77713          	zext.b	a4,a4
    61000e90:	00e78023          	sb	a4,0(a5) # 68020000 <_sp+0x6fe0000>
}
    61000e94:	0001                	nop
}
    61000e96:	0001                	nop
    61000e98:	6462                	ld	s0,24(sp)
    61000e9a:	6105                	addi	sp,sp,32
    61000e9c:	8082                	ret

0000000061000e9e <Trap_Init>:
 * \brief do the init for trap(interrupt and exception) entry for supervisor mode
 * \details
 * This function provide initialization of CSR_STVT CSR_STVT2 and CSR_STVEC.
 */
static void Trap_Init(void)
{
    61000e9e:	1141                	addi	sp,sp,-16
    61000ea0:	e422                	sd	s0,8(sp)
    61000ea2:	0800                	addi	s0,sp,16
    __RV_CSR_SET(CSR_STVT2, 0x01);
    /*
     * Set supervisor exception entry stvec to exc_entry_s */
    __RV_CSR_WRITE(CSR_STVEC, &exc_entry_s);
#endif
}
    61000ea4:	0001                	nop
    61000ea6:	6422                	ld	s0,8(sp)
    61000ea8:	0141                	addi	sp,sp,16
    61000eaa:	8082                	ret

0000000061000eac <_premain_init>:
 * For RISC-V gnu toolchain, _init function might not be called
 * by __libc_init_array function, so we defined a new function
 * to do initialization.
 */
void _premain_init(void)
{
    61000eac:	1141                	addi	sp,sp,-16
    61000eae:	e406                	sd	ra,8(sp)
    61000eb0:	e022                	sd	s0,0(sp)
    61000eb2:	0800                	addi	s0,sp,16
        EnableDCache();
    }
#endif

    /* Do fence and fence.i to make sure previous ilm/dlm/icache/dcache control done */
    __RWMB();
    61000eb4:	0ff0000f          	fence
 * The FENCE.I instruction is used to synchronize the instruction
 * and data streams.
 */
__STATIC_FORCEINLINE void __FENCE_I(void)
{
    __ASM volatile("fence.i");
    61000eb8:	0000100f          	fence.i
}
    61000ebc:	0001                	nop
    __FENCE_I();


    /* Display banner after UART initialized */
    SystemBannerPrint();
    61000ebe:	f2fff0ef          	jal	ra,61000dec <SystemBannerPrint>
    /* Initialize exception default handlers */
    Exception_Init();
    61000ec2:	27a000ef          	jal	ra,6100113c <Exception_Init>
    /* ECLIC initialization, mainly MTH and NLBIT */
    ECLIC_Init();
    61000ec6:	f35ff0ef          	jal	ra,61000dfa <ECLIC_Init>
    Trap_Init();
    61000eca:	fd5ff0ef          	jal	ra,61000e9e <Trap_Init>
            RUNMODE_IC_EN, RUNMODE_DC_EN, RUNMODE_CCM_EN);
        printf("CSR: MILM_CTL 0x%x, MDLM_CTL 0x%x, MCACHE_CTL 0x%x\n", \
            __RV_CSR_READ(CSR_MILM_CTL), __RV_CSR_READ(CSR_MDLM_CTL), \
            __RV_CSR_READ(CSR_MCACHE_CTL));
#endif
}
    61000ece:	0001                	nop
    61000ed0:	60a2                	ld	ra,8(sp)
    61000ed2:	6402                	ld	s0,0(sp)
    61000ed4:	0141                	addi	sp,sp,16
    61000ed6:	8082                	ret

0000000061000ed8 <_postmain_fini>:
 * For RISC-V gnu toolchain, _fini function might not be called
 * by __libc_fini_array function, so we defined a new function
 * to do initialization
 */
void _postmain_fini(int status)
{
    61000ed8:	1101                	addi	sp,sp,-32
    61000eda:	ec22                	sd	s0,24(sp)
    61000edc:	1000                	addi	s0,sp,32
    61000ede:	87aa                	mv	a5,a0
    61000ee0:	fef42623          	sw	a5,-20(s0)
    /* TODO: Add your own finishing code here, called after main */

}
    61000ee4:	0001                	nop
    61000ee6:	6462                	ld	s0,24(sp)
    61000ee8:	6105                	addi	sp,sp,32
    61000eea:	8082                	ret

0000000061000eec <_init>:
 * error init.c:(.text.__libc_init_array+0x26): undefined reference to `_init'
 * \note
 * Please use \ref _premain_init function now
 */
void _init(void)
{
    61000eec:	1141                	addi	sp,sp,-16
    61000eee:	e422                	sd	s0,8(sp)
    61000ef0:	0800                	addi	s0,sp,16
    /* Don't put any code here, please use _premain_init now */
}
    61000ef2:	0001                	nop
    61000ef4:	6422                	ld	s0,8(sp)
    61000ef6:	0141                	addi	sp,sp,16
    61000ef8:	8082                	ret

0000000061000efa <_fini>:
 * error fini.c:(.text.__libc_fini_array+0x28): undefined reference to `_fini'
 * \note
 * Please use \ref _postmain_fini function now
 */
void _fini(void)
{
    61000efa:	1141                	addi	sp,sp,-16
    61000efc:	e422                	sd	s0,8(sp)
    61000efe:	0800                	addi	s0,sp,16
    /* Don't put any code here, please use _postmain_fini now */
}
    61000f00:	0001                	nop
    61000f02:	6422                	ld	s0,8(sp)
    61000f04:	0141                	addi	sp,sp,16
    61000f06:	8082                	ret

0000000061000f08 <_write>:
#include <sys/types.h>
#include <nuclei_sdk_hal.h>
#include "al_log.h"

__WEAK ssize_t _write(int fd, const void* ptr, size_t len)
{
    61000f08:	7179                	addi	sp,sp,-48
    61000f0a:	f406                	sd	ra,40(sp)
    61000f0c:	f022                	sd	s0,32(sp)
    61000f0e:	1800                	addi	s0,sp,48
    61000f10:	87aa                	mv	a5,a0
    61000f12:	feb43023          	sd	a1,-32(s0)
    61000f16:	fcc43c23          	sd	a2,-40(s0)
    61000f1a:	fef42623          	sw	a5,-20(s0)
    (void)fd;

    return AlLog_Write(ptr, len);
    61000f1e:	fd843783          	ld	a5,-40(s0)
    61000f22:	2781                	sext.w	a5,a5
    61000f24:	85be                	mv	a1,a5
    61000f26:	fe043503          	ld	a0,-32(s0)
    61000f2a:	34c000ef          	jal	ra,61001276 <AlLog_Write>
    61000f2e:	87aa                	mv	a5,a0
    61000f30:	2781                	sext.w	a5,a5
    61000f32:	1782                	slli	a5,a5,0x20
    61000f34:	9381                	srli	a5,a5,0x20
}
    61000f36:	853e                	mv	a0,a5
    61000f38:	70a2                	ld	ra,40(sp)
    61000f3a:	7402                	ld	s0,32(sp)
    61000f3c:	6145                	addi	sp,sp,48
    61000f3e:	8082                	ret

0000000061000f40 <AlUart_Hal_SendDataPolling>:
 * @return
 *          - AL_OK
 * @note
*/
AL_S32 AlUart_Hal_SendDataPolling(AL_UART_HalStruct *Handle, AL_U8 *Data, AL_U32 Size)
{
    61000f40:	7139                	addi	sp,sp,-64
    61000f42:	fc06                	sd	ra,56(sp)
    61000f44:	f822                	sd	s0,48(sp)
    61000f46:	0080                	addi	s0,sp,64
    61000f48:	fca43c23          	sd	a0,-40(s0)
    61000f4c:	fcb43823          	sd	a1,-48(s0)
    61000f50:	87b2                	mv	a5,a2
    61000f52:	fcf42623          	sw	a5,-52(s0)
    AL_S32 Ret = AL_OK;
    61000f56:	fe042623          	sw	zero,-20(s0)

    if (Handle == AL_NULL || Handle->Dev == AL_NULL) {
    61000f5a:	fd843783          	ld	a5,-40(s0)
    61000f5e:	c789                	beqz	a5,61000f68 <AlUart_Hal_SendDataPolling+0x28>
    61000f60:	fd843783          	ld	a5,-40(s0)
    61000f64:	639c                	ld	a5,0(a5)
    61000f66:	e789                	bnez	a5,61000f70 <AlUart_Hal_SendDataPolling+0x30>
        return AL_UART_ERR_ILLEGAL_PARAM;
    61000f68:	810407b7          	lui	a5,0x81040
    61000f6c:	0789                	addi	a5,a5,2
    61000f6e:	a805                	j	61000f9e <AlUart_Hal_SendDataPolling+0x5e>
    }

    AL_UART_HAL_LOCK(Handle);

    Ret = AlUart_Dev_SendDataPolling(Handle->Dev, Data, Size);
    61000f70:	fd843783          	ld	a5,-40(s0)
    61000f74:	639c                	ld	a5,0(a5)
    61000f76:	fcc42703          	lw	a4,-52(s0)
    61000f7a:	863a                	mv	a2,a4
    61000f7c:	fd043583          	ld	a1,-48(s0)
    61000f80:	853e                	mv	a0,a5
    61000f82:	270000ef          	jal	ra,610011f2 <AlUart_Dev_SendDataPolling>
    61000f86:	87aa                	mv	a5,a0
    61000f88:	fef42623          	sw	a5,-20(s0)
    if (Ret != AL_OK) {
    61000f8c:	fec42783          	lw	a5,-20(s0)
    61000f90:	2781                	sext.w	a5,a5
    61000f92:	c781                	beqz	a5,61000f9a <AlUart_Hal_SendDataPolling+0x5a>
        AL_UART_HAL_UNLOCK(Handle);
        return Ret;
    61000f94:	fec42783          	lw	a5,-20(s0)
    61000f98:	a019                	j	61000f9e <AlUart_Hal_SendDataPolling+0x5e>
    }

    AL_UART_HAL_UNLOCK(Handle);

    return Ret;
    61000f9a:	fec42783          	lw	a5,-20(s0)
}
    61000f9e:	853e                	mv	a0,a5
    61000fa0:	70e2                	ld	ra,56(sp)
    61000fa2:	7442                	ld	s0,48(sp)
    61000fa4:	6121                	addi	sp,sp,64
    61000fa6:	8082                	ret

0000000061000fa8 <thread_entry>:
/*  */
volatile rt_uint32_t count[2];

/*  12  */
static void thread_entry(void* parameter)
{
    61000fa8:	7179                	addi	sp,sp,-48
    61000faa:	f406                	sd	ra,40(sp)
    61000fac:	f022                	sd	s0,32(sp)
    61000fae:	1800                	addi	s0,sp,48
    61000fb0:	fca43c23          	sd	a0,-40(s0)
    rt_uint32_t value;

    value = (rt_uint32_t)parameter;
    61000fb4:	fd843783          	ld	a5,-40(s0)
    61000fb8:	fef42623          	sw	a5,-20(s0)
    while (1)
    {
        rt_kprintf("thread %d is running\n", value);
    61000fbc:	fec42783          	lw	a5,-20(s0)
    61000fc0:	85be                	mv	a1,a5
    61000fc2:	00007517          	auipc	a0,0x7
    61000fc6:	2ee50513          	addi	a0,a0,750 # 610082b0 <memchr+0x192>
    61000fca:	67c030ef          	jal	ra,61004646 <rt_kprintf>
        rt_thread_mdelay(500); // 
    61000fce:	1f400513          	li	a0,500
    61000fd2:	3f0020ef          	jal	ra,610033c2 <rt_thread_mdelay>
        rt_kprintf("thread %d is running\n", value);
    61000fd6:	b7dd                	j	61000fbc <thread_entry+0x14>

0000000061000fd8 <hook_of_scheduler>:

static rt_thread_t tid1 = RT_NULL;
static rt_thread_t tid2 = RT_NULL;

static void hook_of_scheduler(struct rt_thread* from, struct rt_thread* to)
{
    61000fd8:	1101                	addi	sp,sp,-32
    61000fda:	ec06                	sd	ra,24(sp)
    61000fdc:	e822                	sd	s0,16(sp)
    61000fde:	1000                	addi	s0,sp,32
    61000fe0:	fea43423          	sd	a0,-24(s0)
    61000fe4:	feb43023          	sd	a1,-32(s0)
    rt_kprintf("from: %s -->  to: %s \n", from->name , to->name);
    61000fe8:	fe843783          	ld	a5,-24(s0)
    61000fec:	fe043703          	ld	a4,-32(s0)
    61000ff0:	863a                	mv	a2,a4
    61000ff2:	85be                	mv	a1,a5
    61000ff4:	00007517          	auipc	a0,0x7
    61000ff8:	2d450513          	addi	a0,a0,724 # 610082c8 <memchr+0x1aa>
    61000ffc:	64a030ef          	jal	ra,61004646 <rt_kprintf>
}
    61001000:	0001                	nop
    61001002:	60e2                	ld	ra,24(sp)
    61001004:	6442                	ld	s0,16(sp)
    61001006:	6105                	addi	sp,sp,32
    61001008:	8082                	ret

000000006100100a <scheduler_hook>:

int scheduler_hook(void)
{
    6100100a:	1141                	addi	sp,sp,-16
    6100100c:	e406                	sd	ra,8(sp)
    6100100e:	e022                	sd	s0,0(sp)
    61001010:	0800                	addi	s0,sp,16
    /*  */
    rt_scheduler_sethook(hook_of_scheduler);
    61001012:	00000517          	auipc	a0,0x0
    61001016:	fc650513          	addi	a0,a0,-58 # 61000fd8 <hook_of_scheduler>
    6100101a:	3ae000ef          	jal	ra,610013c8 <rt_scheduler_sethook>

    /*  1 */
    tid1 = rt_thread_create("thread1",
    6100101e:	47a9                	li	a5,10
    61001020:	4751                	li	a4,20
    61001022:	40000693          	li	a3,1024
    61001026:	4605                	li	a2,1
    61001028:	00000597          	auipc	a1,0x0
    6100102c:	f8058593          	addi	a1,a1,-128 # 61000fa8 <thread_entry>
    61001030:	00007517          	auipc	a0,0x7
    61001034:	2b050513          	addi	a0,a0,688 # 610082e0 <memchr+0x1c2>
    61001038:	140020ef          	jal	ra,61003178 <rt_thread_create>
    6100103c:	872a                	mv	a4,a0
    6100103e:	0001f797          	auipc	a5,0x1f
    61001042:	20278793          	addi	a5,a5,514 # 61020240 <tid1>
    61001046:	e398                	sd	a4,0(a5)
                            thread_entry, (void*)1,
                            THREAD_STACK_SIZE,
                            THREAD_PRIORITY, THREAD_TIMESLICE);
    if (tid1 != RT_NULL)
    61001048:	0001f797          	auipc	a5,0x1f
    6100104c:	1f878793          	addi	a5,a5,504 # 61020240 <tid1>
    61001050:	639c                	ld	a5,0(a5)
    61001052:	cb89                	beqz	a5,61001064 <scheduler_hook+0x5a>
        rt_thread_startup(tid1);
    61001054:	0001f797          	auipc	a5,0x1f
    61001058:	1ec78793          	addi	a5,a5,492 # 61020240 <tid1>
    6100105c:	639c                	ld	a5,0(a5)
    6100105e:	853e                	mv	a0,a5
    61001060:	773010ef          	jal	ra,61002fd2 <rt_thread_startup>

    /*  2 */
    tid2 = rt_thread_create("thread2",
    61001064:	4795                	li	a5,5
    61001066:	4751                	li	a4,20
    61001068:	40000693          	li	a3,1024
    6100106c:	4609                	li	a2,2
    6100106e:	00000597          	auipc	a1,0x0
    61001072:	f3a58593          	addi	a1,a1,-198 # 61000fa8 <thread_entry>
    61001076:	00007517          	auipc	a0,0x7
    6100107a:	27250513          	addi	a0,a0,626 # 610082e8 <memchr+0x1ca>
    6100107e:	0fa020ef          	jal	ra,61003178 <rt_thread_create>
    61001082:	872a                	mv	a4,a0
    61001084:	84818793          	addi	a5,gp,-1976 # 61020248 <tid2>
    61001088:	e398                	sd	a4,0(a5)
                            thread_entry, (void*)2,
                            THREAD_STACK_SIZE,
                            THREAD_PRIORITY,THREAD_TIMESLICE - 5);
    if (tid2 != RT_NULL)
    6100108a:	84818793          	addi	a5,gp,-1976 # 61020248 <tid2>
    6100108e:	639c                	ld	a5,0(a5)
    61001090:	c799                	beqz	a5,6100109e <scheduler_hook+0x94>
        rt_thread_startup(tid2);
    61001092:	84818793          	addi	a5,gp,-1976 # 61020248 <tid2>
    61001096:	639c                	ld	a5,0(a5)
    61001098:	853e                	mv	a0,a5
    6100109a:	739010ef          	jal	ra,61002fd2 <rt_thread_startup>
    return 0;
    6100109e:	4781                	li	a5,0
}
    610010a0:	853e                	mv	a0,a5
    610010a2:	60a2                	ld	ra,8(sp)
    610010a4:	6402                	ld	s0,0(sp)
    610010a6:	0141                	addi	sp,sp,16
    610010a8:	8082                	ret

00000000610010aa <main>:

/*  msh  */
// MSH_CMD_EXPORT(scheduler_hook, scheduler_hook sample);

int main(void)
{
    610010aa:	1141                	addi	sp,sp,-16
    610010ac:	e406                	sd	ra,8(sp)
    610010ae:	e022                	sd	s0,0(sp)
    610010b0:	0800                	addi	s0,sp,16
    scheduler_hook();
    610010b2:	f59ff0ef          	jal	ra,6100100a <scheduler_hook>
    printf("hello\n");
    610010b6:	00007517          	auipc	a0,0x7
    610010ba:	23a50513          	addi	a0,a0,570 # 610082f0 <memchr+0x1d2>
    610010be:	0fe060ef          	jal	ra,610071bc <puts>
    while (1)
    {
        // rt_kprintf("main thread is running\n");
        rt_thread_mdelay(500); // 
    610010c2:	1f400513          	li	a0,500
    610010c6:	2fc020ef          	jal	ra,610033c2 <rt_thread_mdelay>
    610010ca:	bfe5                	j	610010c2 <main+0x18>

00000000610010cc <system_default_exception_handler>:
 * \details
 * This function provided a default exception and NMI handling code for all exception ids.
 * By default, It will just print some information for debug, Vendor can customize it according to its requirements.
 */
static void system_default_exception_handler(unsigned long mcause, unsigned long sp)
{
    610010cc:	7139                	addi	sp,sp,-64
    610010ce:	fc06                	sd	ra,56(sp)
    610010d0:	f822                	sd	s0,48(sp)
    610010d2:	0080                	addi	s0,sp,64
    610010d4:	fca43423          	sd	a0,-56(s0)
    610010d8:	fcb43023          	sd	a1,-64(s0)
    /* TODO: Uncomment this if you have implement printf function */
    rt_kprintf("MCAUSE : 0x%lx\r\n", mcause);
    610010dc:	fc843583          	ld	a1,-56(s0)
    610010e0:	00007517          	auipc	a0,0x7
    610010e4:	21850513          	addi	a0,a0,536 # 610082f8 <memchr+0x1da>
    610010e8:	55e030ef          	jal	ra,61004646 <rt_kprintf>
    rt_kprintf("MDCAUSE: 0x%lx\r\n", __RV_CSR_READ(CSR_MDCAUSE));
    610010ec:	7c9027f3          	csrr	a5,mdcause
    610010f0:	fef43423          	sd	a5,-24(s0)
    610010f4:	fe843783          	ld	a5,-24(s0)
    610010f8:	85be                	mv	a1,a5
    610010fa:	00007517          	auipc	a0,0x7
    610010fe:	21650513          	addi	a0,a0,534 # 61008310 <memchr+0x1f2>
    61001102:	544030ef          	jal	ra,61004646 <rt_kprintf>
    rt_kprintf("MEPC   : 0x%lx\r\n", __RV_CSR_READ(CSR_MEPC));
    61001106:	341027f3          	csrr	a5,mepc
    6100110a:	fef43023          	sd	a5,-32(s0)
    6100110e:	fe043783          	ld	a5,-32(s0)
    61001112:	85be                	mv	a1,a5
    61001114:	00007517          	auipc	a0,0x7
    61001118:	21450513          	addi	a0,a0,532 # 61008328 <memchr+0x20a>
    6100111c:	52a030ef          	jal	ra,61004646 <rt_kprintf>
    rt_kprintf("MTVAL  : 0x%lx\r\n", __RV_CSR_READ(CSR_MTVAL));
    61001120:	343027f3          	csrr	a5,mtval
    61001124:	fcf43c23          	sd	a5,-40(s0)
    61001128:	fd843783          	ld	a5,-40(s0)
    6100112c:	85be                	mv	a1,a5
    6100112e:	00007517          	auipc	a0,0x7
    61001132:	21250513          	addi	a0,a0,530 # 61008340 <memchr+0x222>
    61001136:	510030ef          	jal	ra,61004646 <rt_kprintf>
    while (1);
    6100113a:	a001                	j	6100113a <system_default_exception_handler+0x6e>

000000006100113c <Exception_Init>:
 * The core exception handler for each exception id will be initialized to \ref system_default_exception_handler.
 * \note
 * Called in \ref _init function, used to initialize default exception handlers for all exception IDs
 */
void Exception_Init(void)
{
    6100113c:	1101                	addi	sp,sp,-32
    6100113e:	ec22                	sd	s0,24(sp)
    61001140:	1000                	addi	s0,sp,32
    for (int i = 0; i < MAX_SYSTEM_EXCEPTION_NUM + 1; i++) {
    61001142:	fe042623          	sw	zero,-20(s0)
    61001146:	a00d                	j	61001168 <Exception_Init+0x2c>
        SystemExceptionHandlers[i] = system_default_exception_handler;
    61001148:	9d818713          	addi	a4,gp,-1576 # 610203d8 <SystemExceptionHandlers>
    6100114c:	fec42783          	lw	a5,-20(s0)
    61001150:	078e                	slli	a5,a5,0x3
    61001152:	97ba                	add	a5,a5,a4
    61001154:	00000717          	auipc	a4,0x0
    61001158:	f7870713          	addi	a4,a4,-136 # 610010cc <system_default_exception_handler>
    6100115c:	e398                	sd	a4,0(a5)
    for (int i = 0; i < MAX_SYSTEM_EXCEPTION_NUM + 1; i++) {
    6100115e:	fec42783          	lw	a5,-20(s0)
    61001162:	2785                	addiw	a5,a5,1
    61001164:	fef42623          	sw	a5,-20(s0)
    61001168:	fec42783          	lw	a5,-20(s0)
    6100116c:	0007871b          	sext.w	a4,a5
    61001170:	47b1                	li	a5,12
    61001172:	fce7dbe3          	bge	a5,a4,61001148 <Exception_Init+0xc>
    }
}
    61001176:	0001                	nop
    61001178:	0001                	nop
    6100117a:	6462                	ld	s0,24(sp)
    6100117c:	6105                	addi	sp,sp,32
    6100117e:	8082                	ret

0000000061001180 <AlUart_ll_SendByte>:
    AL_REG32_SET_BITS(BaseAddr + UART__FCR__IIR__OFFSET, UART__FCR__IIR__RT__FIFOSE__SHIFT,
             UART__FCR__IIR__RT__FIFOSE__SSIZE, FifoThr);
}

static inline AL_VOID AlUart_ll_SendByte(AL_REG BaseAddr, AL_U8 Data)
{
    61001180:	1101                	addi	sp,sp,-32
    61001182:	ec22                	sd	s0,24(sp)
    61001184:	1000                	addi	s0,sp,32
    61001186:	fea43423          	sd	a0,-24(s0)
    6100118a:	87ae                	mv	a5,a1
    6100118c:	fef403a3          	sb	a5,-25(s0)
    AL_REG32_WRITE(BaseAddr + UART__RBR__THR__DLL__OFFSET, Data);
    61001190:	fe843783          	ld	a5,-24(s0)
    61001194:	873e                	mv	a4,a5
    61001196:	fe744783          	lbu	a5,-25(s0)
    6100119a:	2781                	sext.w	a5,a5
    6100119c:	c31c                	sw	a5,0(a4)
}
    6100119e:	0001                	nop
    610011a0:	6462                	ld	s0,24(sp)
    610011a2:	6105                	addi	sp,sp,32
    610011a4:	8082                	ret

00000000610011a6 <AlUart_ll_IsTxDone>:
{
    return AL_REG32_GET_BIT(BaseAddr + UART__LSR__OFFSET, UART__LSR__THRE__SHIFT);
}

static inline AL_BOOL AlUart_ll_IsTxDone(AL_REG BaseAddr)
{
    610011a6:	1101                	addi	sp,sp,-32
    610011a8:	ec22                	sd	s0,24(sp)
    610011aa:	1000                	addi	s0,sp,32
    610011ac:	fea43423          	sd	a0,-24(s0)
    return AL_REG32_GET_BIT(BaseAddr + UART__LSR__OFFSET, UART__LSR__TEMT__SHIFT);
    610011b0:	fe843783          	ld	a5,-24(s0)
    610011b4:	07d1                	addi	a5,a5,20
    610011b6:	439c                	lw	a5,0(a5)
    610011b8:	2781                	sext.w	a5,a5
    610011ba:	0067d79b          	srliw	a5,a5,0x6
    610011be:	2781                	sext.w	a5,a5
    610011c0:	8b85                	andi	a5,a5,1
    610011c2:	2781                	sext.w	a5,a5
}
    610011c4:	853e                	mv	a0,a5
    610011c6:	6462                	ld	s0,24(sp)
    610011c8:	6105                	addi	sp,sp,32
    610011ca:	8082                	ret

00000000610011cc <AlUart_ll_IsTransmitFifoFull>:
{
    return AL_REG32_GET_BIT(BaseAddr + UART__LSR__OFFSET, UART__LSR__DR__SHIFT);
}

static inline AL_BOOL AlUart_ll_IsTransmitFifoFull(AL_REG BaseAddr)
{
    610011cc:	1101                	addi	sp,sp,-32
    610011ce:	ec22                	sd	s0,24(sp)
    610011d0:	1000                	addi	s0,sp,32
    610011d2:	fea43423          	sd	a0,-24(s0)
    return AL_REG32_GET_BIT(BaseAddr + UART__LSR__OFFSET, UART__LSR__THRE__SHIFT);
    610011d6:	fe843783          	ld	a5,-24(s0)
    610011da:	07d1                	addi	a5,a5,20
    610011dc:	439c                	lw	a5,0(a5)
    610011de:	2781                	sext.w	a5,a5
    610011e0:	0057d79b          	srliw	a5,a5,0x5
    610011e4:	2781                	sext.w	a5,a5
    610011e6:	8b85                	andi	a5,a5,1
    610011e8:	2781                	sext.w	a5,a5
}
    610011ea:	853e                	mv	a0,a5
    610011ec:	6462                	ld	s0,24(sp)
    610011ee:	6105                	addi	sp,sp,32
    610011f0:	8082                	ret

00000000610011f2 <AlUart_Dev_SendDataPolling>:
 * @return
 *          - AL_OK
 * @note
*/
AL_S32 AlUart_Dev_SendDataPolling(AL_UART_DevStruct *Uart, AL_U8 *Data, AL_U32 Size)
{
    610011f2:	7139                	addi	sp,sp,-64
    610011f4:	fc06                	sd	ra,56(sp)
    610011f6:	f822                	sd	s0,48(sp)
    610011f8:	0080                	addi	s0,sp,64
    610011fa:	fca43c23          	sd	a0,-40(s0)
    610011fe:	fcb43823          	sd	a1,-48(s0)
    61001202:	87b2                	mv	a5,a2
    61001204:	fcf42623          	sw	a5,-52(s0)
    static int i;
    AL_U32 HandledCnt = 0;
    61001208:	fe042623          	sw	zero,-20(s0)

    while (HandledCnt < Size) {
    6100120c:	a82d                	j	61001246 <AlUart_Dev_SendDataPolling+0x54>
        if (!(AlUart_ll_IsTransmitFifoFull(Uart->BaseAddr))) {
    6100120e:	fd843783          	ld	a5,-40(s0)
    61001212:	639c                	ld	a5,0(a5)
    61001214:	853e                	mv	a0,a5
    61001216:	fb7ff0ef          	jal	ra,610011cc <AlUart_ll_IsTransmitFifoFull>
    6100121a:	87aa                	mv	a5,a0
    6100121c:	2781                	sext.w	a5,a5
    6100121e:	e785                	bnez	a5,61001246 <AlUart_Dev_SendDataPolling+0x54>
            AlUart_ll_SendByte(Uart->BaseAddr, Data[HandledCnt]);
    61001220:	fd843783          	ld	a5,-40(s0)
    61001224:	6394                	ld	a3,0(a5)
    61001226:	fec46783          	lwu	a5,-20(s0)
    6100122a:	fd043703          	ld	a4,-48(s0)
    6100122e:	97ba                	add	a5,a5,a4
    61001230:	0007c783          	lbu	a5,0(a5)
    61001234:	85be                	mv	a1,a5
    61001236:	8536                	mv	a0,a3
    61001238:	f49ff0ef          	jal	ra,61001180 <AlUart_ll_SendByte>
            HandledCnt ++;
    6100123c:	fec42783          	lw	a5,-20(s0)
    61001240:	2785                	addiw	a5,a5,1
    61001242:	fef42623          	sw	a5,-20(s0)
    while (HandledCnt < Size) {
    61001246:	fec42703          	lw	a4,-20(s0)
    6100124a:	fcc42783          	lw	a5,-52(s0)
    6100124e:	2701                	sext.w	a4,a4
    61001250:	2781                	sext.w	a5,a5
    61001252:	faf76ee3          	bltu	a4,a5,6100120e <AlUart_Dev_SendDataPolling+0x1c>
        }
    }

    /* this bit is set whenever the Transmitter Shift Register and the FIFO are both empty. */
    while (!(AlUart_ll_IsTxDone(Uart->BaseAddr)));
    61001256:	0001                	nop
    61001258:	fd843783          	ld	a5,-40(s0)
    6100125c:	639c                	ld	a5,0(a5)
    6100125e:	853e                	mv	a0,a5
    61001260:	f47ff0ef          	jal	ra,610011a6 <AlUart_ll_IsTxDone>
    61001264:	87aa                	mv	a5,a0
    61001266:	2781                	sext.w	a5,a5
    61001268:	dbe5                	beqz	a5,61001258 <AlUart_Dev_SendDataPolling+0x66>

    return AL_OK;
    6100126a:	4781                	li	a5,0
}
    6100126c:	853e                	mv	a0,a5
    6100126e:	70e2                	ld	ra,56(sp)
    61001270:	7442                	ld	s0,48(sp)
    61001272:	6121                	addi	sp,sp,64
    61001274:	8082                	ret

0000000061001276 <AlLog_Write>:
    return AL_OK;
#endif
}

AL_U32 AlLog_Write(const void* Data, AL_U32 Len)
{
    61001276:	7179                	addi	sp,sp,-48
    61001278:	f406                	sd	ra,40(sp)
    6100127a:	f022                	sd	s0,32(sp)
    6100127c:	1800                	addi	s0,sp,48
    6100127e:	fca43c23          	sd	a0,-40(s0)
    61001282:	87ae                	mv	a5,a1
    61001284:	fcf42a23          	sw	a5,-44(s0)
#if (LOG_DEV == AL_LOG_UART0) || (LOG_DEV == AL_LOG_UART1)
    AL_S32 ret = AlUart_Hal_SendDataPolling(&Log, Data, Len);
    61001288:	fd442783          	lw	a5,-44(s0)
    6100128c:	863e                	mv	a2,a5
    6100128e:	fd843583          	ld	a1,-40(s0)
    61001292:	85018513          	addi	a0,gp,-1968 # 61020250 <Log>
    61001296:	cabff0ef          	jal	ra,61000f40 <AlUart_Hal_SendDataPolling>
    6100129a:	87aa                	mv	a5,a0
    6100129c:	fef42623          	sw	a5,-20(s0)
    (AL_VOID)Data;
    (AL_VOID)Len;

#endif

    return Len;
    610012a0:	fd442783          	lw	a5,-44(s0)
}
    610012a4:	853e                	mv	a0,a5
    610012a6:	70a2                	ld	ra,40(sp)
    610012a8:	7402                	ld	s0,32(sp)
    610012aa:	6145                	addi	sp,sp,48
    610012ac:	8082                	ret

00000000610012ae <rt_list_init>:
 * @brief initialize a list
 *
 * @param l list to be initialized
 */
rt_inline void rt_list_init(rt_list_t *l)
{
    610012ae:	1101                	addi	sp,sp,-32
    610012b0:	ec22                	sd	s0,24(sp)
    610012b2:	1000                	addi	s0,sp,32
    610012b4:	fea43423          	sd	a0,-24(s0)
    l->next = l->prev = l;
    610012b8:	fe843783          	ld	a5,-24(s0)
    610012bc:	fe843703          	ld	a4,-24(s0)
    610012c0:	e798                	sd	a4,8(a5)
    610012c2:	fe843783          	ld	a5,-24(s0)
    610012c6:	6798                	ld	a4,8(a5)
    610012c8:	fe843783          	ld	a5,-24(s0)
    610012cc:	e398                	sd	a4,0(a5)
}
    610012ce:	0001                	nop
    610012d0:	6462                	ld	s0,24(sp)
    610012d2:	6105                	addi	sp,sp,32
    610012d4:	8082                	ret

00000000610012d6 <rt_list_insert_after>:
 *
 * @param l list to insert it
 * @param n new node to be inserted
 */
rt_inline void rt_list_insert_after(rt_list_t *l, rt_list_t *n)
{
    610012d6:	1101                	addi	sp,sp,-32
    610012d8:	ec22                	sd	s0,24(sp)
    610012da:	1000                	addi	s0,sp,32
    610012dc:	fea43423          	sd	a0,-24(s0)
    610012e0:	feb43023          	sd	a1,-32(s0)
    l->next->prev = n;
    610012e4:	fe843783          	ld	a5,-24(s0)
    610012e8:	639c                	ld	a5,0(a5)
    610012ea:	fe043703          	ld	a4,-32(s0)
    610012ee:	e798                	sd	a4,8(a5)
    n->next = l->next;
    610012f0:	fe843783          	ld	a5,-24(s0)
    610012f4:	6398                	ld	a4,0(a5)
    610012f6:	fe043783          	ld	a5,-32(s0)
    610012fa:	e398                	sd	a4,0(a5)

    l->next = n;
    610012fc:	fe843783          	ld	a5,-24(s0)
    61001300:	fe043703          	ld	a4,-32(s0)
    61001304:	e398                	sd	a4,0(a5)
    n->prev = l;
    61001306:	fe043783          	ld	a5,-32(s0)
    6100130a:	fe843703          	ld	a4,-24(s0)
    6100130e:	e798                	sd	a4,8(a5)
}
    61001310:	0001                	nop
    61001312:	6462                	ld	s0,24(sp)
    61001314:	6105                	addi	sp,sp,32
    61001316:	8082                	ret

0000000061001318 <rt_list_insert_before>:
 *
 * @param n new node to be inserted
 * @param l list to insert it
 */
rt_inline void rt_list_insert_before(rt_list_t *l, rt_list_t *n)
{
    61001318:	1101                	addi	sp,sp,-32
    6100131a:	ec22                	sd	s0,24(sp)
    6100131c:	1000                	addi	s0,sp,32
    6100131e:	fea43423          	sd	a0,-24(s0)
    61001322:	feb43023          	sd	a1,-32(s0)
    l->prev->next = n;
    61001326:	fe843783          	ld	a5,-24(s0)
    6100132a:	679c                	ld	a5,8(a5)
    6100132c:	fe043703          	ld	a4,-32(s0)
    61001330:	e398                	sd	a4,0(a5)
    n->prev = l->prev;
    61001332:	fe843783          	ld	a5,-24(s0)
    61001336:	6798                	ld	a4,8(a5)
    61001338:	fe043783          	ld	a5,-32(s0)
    6100133c:	e798                	sd	a4,8(a5)

    l->prev = n;
    6100133e:	fe843783          	ld	a5,-24(s0)
    61001342:	fe043703          	ld	a4,-32(s0)
    61001346:	e798                	sd	a4,8(a5)
    n->next = l;
    61001348:	fe043783          	ld	a5,-32(s0)
    6100134c:	fe843703          	ld	a4,-24(s0)
    61001350:	e398                	sd	a4,0(a5)
}
    61001352:	0001                	nop
    61001354:	6462                	ld	s0,24(sp)
    61001356:	6105                	addi	sp,sp,32
    61001358:	8082                	ret

000000006100135a <rt_list_remove>:
/**
 * @brief remove node from list.
 * @param n the node to remove from the list.
 */
rt_inline void rt_list_remove(rt_list_t *n)
{
    6100135a:	1101                	addi	sp,sp,-32
    6100135c:	ec22                	sd	s0,24(sp)
    6100135e:	1000                	addi	s0,sp,32
    61001360:	fea43423          	sd	a0,-24(s0)
    n->next->prev = n->prev;
    61001364:	fe843783          	ld	a5,-24(s0)
    61001368:	639c                	ld	a5,0(a5)
    6100136a:	fe843703          	ld	a4,-24(s0)
    6100136e:	6718                	ld	a4,8(a4)
    61001370:	e798                	sd	a4,8(a5)
    n->prev->next = n->next;
    61001372:	fe843783          	ld	a5,-24(s0)
    61001376:	679c                	ld	a5,8(a5)
    61001378:	fe843703          	ld	a4,-24(s0)
    6100137c:	6318                	ld	a4,0(a4)
    6100137e:	e398                	sd	a4,0(a5)

    n->next = n->prev = n;
    61001380:	fe843783          	ld	a5,-24(s0)
    61001384:	fe843703          	ld	a4,-24(s0)
    61001388:	e798                	sd	a4,8(a5)
    6100138a:	fe843783          	ld	a5,-24(s0)
    6100138e:	6798                	ld	a4,8(a5)
    61001390:	fe843783          	ld	a5,-24(s0)
    61001394:	e398                	sd	a4,0(a5)
}
    61001396:	0001                	nop
    61001398:	6462                	ld	s0,24(sp)
    6100139a:	6105                	addi	sp,sp,32
    6100139c:	8082                	ret

000000006100139e <rt_list_isempty>:
/**
 * @brief tests whether a list is empty
 * @param l the list to test.
 */
rt_inline int rt_list_isempty(const rt_list_t *l)
{
    6100139e:	1101                	addi	sp,sp,-32
    610013a0:	ec22                	sd	s0,24(sp)
    610013a2:	1000                	addi	s0,sp,32
    610013a4:	fea43423          	sd	a0,-24(s0)
    return l->next == l;
    610013a8:	fe843783          	ld	a5,-24(s0)
    610013ac:	639c                	ld	a5,0(a5)
    610013ae:	fe843703          	ld	a4,-24(s0)
    610013b2:	40f707b3          	sub	a5,a4,a5
    610013b6:	0017b793          	seqz	a5,a5
    610013ba:	0ff7f793          	zext.b	a5,a5
    610013be:	2781                	sext.w	a5,a5
}
    610013c0:	853e                	mv	a0,a5
    610013c2:	6462                	ld	s0,24(sp)
    610013c4:	6105                	addi	sp,sp,32
    610013c6:	8082                	ret

00000000610013c8 <rt_scheduler_sethook>:
 *        switch happens.
 *
 * @param hook is the hook function.
 */
void rt_scheduler_sethook(void (*hook)(struct rt_thread *from, struct rt_thread *to))
{
    610013c8:	1101                	addi	sp,sp,-32
    610013ca:	ec22                	sd	s0,24(sp)
    610013cc:	1000                	addi	s0,sp,32
    610013ce:	fea43423          	sd	a0,-24(s0)
    rt_scheduler_hook = hook;
    610013d2:	87018793          	addi	a5,gp,-1936 # 61020270 <rt_scheduler_hook>
    610013d6:	fe843703          	ld	a4,-24(s0)
    610013da:	e398                	sd	a4,0(a5)
}
    610013dc:	0001                	nop
    610013de:	6462                	ld	s0,24(sp)
    610013e0:	6105                	addi	sp,sp,32
    610013e2:	8082                	ret

00000000610013e4 <_scheduler_stack_check>:
/**@}*/
#endif /* RT_USING_HOOK */

#ifdef RT_USING_OVERFLOW_CHECK
static void _scheduler_stack_check(struct rt_thread *thread)
{
    610013e4:	7179                	addi	sp,sp,-48
    610013e6:	f406                	sd	ra,40(sp)
    610013e8:	f022                	sd	s0,32(sp)
    610013ea:	1800                	addi	s0,sp,48
    610013ec:	fca43c23          	sd	a0,-40(s0)
    RT_ASSERT(thread != RT_NULL);
    610013f0:	fd843783          	ld	a5,-40(s0)
    610013f4:	ef89                	bnez	a5,6100140e <_scheduler_stack_check+0x2a>
    610013f6:	05f00613          	li	a2,95
    610013fa:	00007597          	auipc	a1,0x7
    610013fe:	fce58593          	addi	a1,a1,-50 # 610083c8 <__FUNCTION__.2>
    61001402:	00007517          	auipc	a0,0x7
    61001406:	f5650513          	addi	a0,a0,-170 # 61008358 <memchr+0x23a>
    6100140a:	55e030ef          	jal	ra,61004968 <rt_assert_handler>

#ifdef ARCH_CPU_STACK_GROWS_UPWARD
    if (*((rt_uint8_t *)((rt_ubase_t)thread->stack_addr + thread->stack_size - 1)) != '#' ||
#else
    if (*((rt_uint8_t *)thread->stack_addr) != '#' ||
    6100140e:	fd843783          	ld	a5,-40(s0)
    61001412:	67bc                	ld	a5,72(a5)
    61001414:	0007c783          	lbu	a5,0(a5)
    61001418:	873e                	mv	a4,a5
    6100141a:	02300793          	li	a5,35
    6100141e:	02f71b63          	bne	a4,a5,61001454 <_scheduler_stack_check+0x70>
#endif /* ARCH_CPU_STACK_GROWS_UPWARD */
        (rt_ubase_t)thread->sp <= (rt_ubase_t)thread->stack_addr ||
    61001422:	fd843783          	ld	a5,-40(s0)
    61001426:	7b9c                	ld	a5,48(a5)
    61001428:	873e                	mv	a4,a5
    6100142a:	fd843783          	ld	a5,-40(s0)
    6100142e:	67bc                	ld	a5,72(a5)
    if (*((rt_uint8_t *)thread->stack_addr) != '#' ||
    61001430:	02e7f263          	bgeu	a5,a4,61001454 <_scheduler_stack_check+0x70>
        (rt_ubase_t)thread->sp >
    61001434:	fd843783          	ld	a5,-40(s0)
    61001438:	7b9c                	ld	a5,48(a5)
    6100143a:	873e                	mv	a4,a5
        (rt_ubase_t)thread->stack_addr + (rt_ubase_t)thread->stack_size)
    6100143c:	fd843783          	ld	a5,-40(s0)
    61001440:	67bc                	ld	a5,72(a5)
    61001442:	86be                	mv	a3,a5
    61001444:	fd843783          	ld	a5,-40(s0)
    61001448:	4bbc                	lw	a5,80(a5)
    6100144a:	1782                	slli	a5,a5,0x20
    6100144c:	9381                	srli	a5,a5,0x20
    6100144e:	97b6                	add	a5,a5,a3
        (rt_ubase_t)thread->sp <= (rt_ubase_t)thread->stack_addr ||
    61001450:	02e7f363          	bgeu	a5,a4,61001476 <_scheduler_stack_check+0x92>
    {
        rt_base_t level;

        rt_kprintf("thread:%s stack overflow\n", thread->name);
    61001454:	fd843783          	ld	a5,-40(s0)
    61001458:	85be                	mv	a1,a5
    6100145a:	00007517          	auipc	a0,0x7
    6100145e:	f1650513          	addi	a0,a0,-234 # 61008370 <memchr+0x252>
    61001462:	1e4030ef          	jal	ra,61004646 <rt_kprintf>

        level = rt_hw_interrupt_disable();
    61001466:	001050ef          	jal	ra,61006c66 <rt_hw_interrupt_disable>
    6100146a:	fea43423          	sd	a0,-24(s0)
        while (level);
    6100146e:	fe843783          	ld	a5,-24(s0)
    61001472:	fff5                	bnez	a5,6100146e <_scheduler_stack_check+0x8a>
    {
    61001474:	a035                	j	610014a0 <_scheduler_stack_check+0xbc>
    {
        rt_kprintf("warning: %s stack is close to the top of stack address.\n",
                   thread->name);
    }
#else
    else if ((rt_ubase_t)thread->sp <= ((rt_ubase_t)thread->stack_addr + 32))
    61001476:	fd843783          	ld	a5,-40(s0)
    6100147a:	7b9c                	ld	a5,48(a5)
    6100147c:	873e                	mv	a4,a5
    6100147e:	fd843783          	ld	a5,-40(s0)
    61001482:	67bc                	ld	a5,72(a5)
    61001484:	02078793          	addi	a5,a5,32
    61001488:	00e7ec63          	bltu	a5,a4,610014a0 <_scheduler_stack_check+0xbc>
    {
        rt_kprintf("warning: %s stack is close to end of stack address.\n",
                   thread->name);
    6100148c:	fd843783          	ld	a5,-40(s0)
        rt_kprintf("warning: %s stack is close to end of stack address.\n",
    61001490:	85be                	mv	a1,a5
    61001492:	00007517          	auipc	a0,0x7
    61001496:	efe50513          	addi	a0,a0,-258 # 61008390 <memchr+0x272>
    6100149a:	1ac030ef          	jal	ra,61004646 <rt_kprintf>
    }
#endif /* ARCH_CPU_STACK_GROWS_UPWARD */
}
    6100149e:	a009                	j	610014a0 <_scheduler_stack_check+0xbc>
    610014a0:	0001                	nop
    610014a2:	70a2                	ld	ra,40(sp)
    610014a4:	7402                	ld	s0,32(sp)
    610014a6:	6145                	addi	sp,sp,48
    610014a8:	8082                	ret

00000000610014aa <_scheduler_get_highest_priority_thread>:

    return highest_priority_thread;
}
#else
static struct rt_thread* _scheduler_get_highest_priority_thread(rt_ubase_t *highest_prio)
{
    610014aa:	7179                	addi	sp,sp,-48
    610014ac:	f406                	sd	ra,40(sp)
    610014ae:	f022                	sd	s0,32(sp)
    610014b0:	1800                	addi	s0,sp,48
    610014b2:	fca43c23          	sd	a0,-40(s0)
    rt_ubase_t number;

    number = __rt_ffs(rt_thread_ready_priority_group) - 1;
    highest_ready_priority = (number << 3) + __rt_ffs(rt_thread_ready_table[number]) - 1;
#else
    highest_ready_priority = __rt_ffs(rt_thread_ready_priority_group) - 1;
    610014b6:	85818793          	addi	a5,gp,-1960 # 61020258 <rt_thread_ready_priority_group>
    610014ba:	439c                	lw	a5,0(a5)
    610014bc:	2781                	sext.w	a5,a5
    610014be:	853e                	mv	a0,a5
    610014c0:	3d0030ef          	jal	ra,61004890 <__rt_ffs>
    610014c4:	87aa                	mv	a5,a0
    610014c6:	37fd                	addiw	a5,a5,-1
    610014c8:	2781                	sext.w	a5,a5
    610014ca:	fef43423          	sd	a5,-24(s0)
#endif /* RT_THREAD_PRIORITY_MAX > 32 */

    /* get highest ready priority thread */
    highest_priority_thread = rt_list_entry(rt_thread_priority_table[highest_ready_priority].next,
    610014ce:	a4018713          	addi	a4,gp,-1472 # 61020440 <rt_thread_priority_table>
    610014d2:	fe843783          	ld	a5,-24(s0)
    610014d6:	0792                	slli	a5,a5,0x4
    610014d8:	97ba                	add	a5,a5,a4
    610014da:	639c                	ld	a5,0(a5)
    610014dc:	1781                	addi	a5,a5,-32
    610014de:	fef43023          	sd	a5,-32(s0)
                              struct rt_thread,
                              tlist);

    *highest_prio = highest_ready_priority;
    610014e2:	fd843783          	ld	a5,-40(s0)
    610014e6:	fe843703          	ld	a4,-24(s0)
    610014ea:	e398                	sd	a4,0(a5)

    return highest_priority_thread;
    610014ec:	fe043783          	ld	a5,-32(s0)
}
    610014f0:	853e                	mv	a0,a5
    610014f2:	70a2                	ld	ra,40(sp)
    610014f4:	7402                	ld	s0,32(sp)
    610014f6:	6145                	addi	sp,sp,48
    610014f8:	8082                	ret

00000000610014fa <rt_system_scheduler_init>:

/**
 * @brief This function will initialize the system scheduler.
 */
void rt_system_scheduler_init(void)
{
    610014fa:	1101                	addi	sp,sp,-32
    610014fc:	ec06                	sd	ra,24(sp)
    610014fe:	e822                	sd	s0,16(sp)
    61001500:	1000                	addi	s0,sp,32
    int cpu;
#endif /* RT_USING_SMP */
    rt_base_t offset;

#ifndef RT_USING_SMP
    rt_scheduler_lock_nest = 0;
    61001502:	85c18793          	addi	a5,gp,-1956 # 6102025c <rt_scheduler_lock_nest>
    61001506:	00079023          	sh	zero,0(a5)
#endif /* RT_USING_SMP */

    RT_DEBUG_LOG(RT_DEBUG_SCHEDULER, ("start scheduler: max priority 0x%02x\n",
                                      RT_THREAD_PRIORITY_MAX));

    for (offset = 0; offset < RT_THREAD_PRIORITY_MAX; offset ++)
    6100150a:	fe043423          	sd	zero,-24(s0)
    6100150e:	a005                	j	6100152e <rt_system_scheduler_init+0x34>
    {
        rt_list_init(&rt_thread_priority_table[offset]);
    61001510:	fe843783          	ld	a5,-24(s0)
    61001514:	00479713          	slli	a4,a5,0x4
    61001518:	a4018793          	addi	a5,gp,-1472 # 61020440 <rt_thread_priority_table>
    6100151c:	97ba                	add	a5,a5,a4
    6100151e:	853e                	mv	a0,a5
    61001520:	d8fff0ef          	jal	ra,610012ae <rt_list_init>
    for (offset = 0; offset < RT_THREAD_PRIORITY_MAX; offset ++)
    61001524:	fe843783          	ld	a5,-24(s0)
    61001528:	0785                	addi	a5,a5,1
    6100152a:	fef43423          	sd	a5,-24(s0)
    6100152e:	fe843703          	ld	a4,-24(s0)
    61001532:	47fd                	li	a5,31
    61001534:	fce7dee3          	bge	a5,a4,61001510 <rt_system_scheduler_init+0x16>
#endif /* RT_THREAD_PRIORITY_MAX > 32 */
    }
#endif /* RT_USING_SMP */

    /* initialize ready priority group */
    rt_thread_ready_priority_group = 0;
    61001538:	85818793          	addi	a5,gp,-1960 # 61020258 <rt_thread_ready_priority_group>
    6100153c:	0007a023          	sw	zero,0(a5)

#if RT_THREAD_PRIORITY_MAX > 32
    /* initialize ready table */
    rt_memset(rt_thread_ready_table, 0, sizeof(rt_thread_ready_table));
#endif /* RT_THREAD_PRIORITY_MAX > 32 */
}
    61001540:	0001                	nop
    61001542:	60e2                	ld	ra,24(sp)
    61001544:	6442                	ld	s0,16(sp)
    61001546:	6105                	addi	sp,sp,32
    61001548:	8082                	ret

000000006100154a <rt_system_scheduler_start>:
/**
 * @brief This function will startup the scheduler. It will select one thread
 *        with the highest priority level, then switch to it.
 */
void rt_system_scheduler_start(void)
{
    6100154a:	1101                	addi	sp,sp,-32
    6100154c:	ec06                	sd	ra,24(sp)
    6100154e:	e822                	sd	s0,16(sp)
    61001550:	1000                	addi	s0,sp,32
    struct rt_thread *to_thread;
    rt_ubase_t highest_ready_priority;

    to_thread = _scheduler_get_highest_priority_thread(&highest_ready_priority);
    61001552:	fe040793          	addi	a5,s0,-32
    61001556:	853e                	mv	a0,a5
    61001558:	f53ff0ef          	jal	ra,610014aa <_scheduler_get_highest_priority_thread>
    6100155c:	fea43423          	sd	a0,-24(s0)

#ifdef RT_USING_SMP
    to_thread->oncpu = rt_hw_cpu_id();
#else
    rt_current_thread = to_thread;
    61001560:	86018793          	addi	a5,gp,-1952 # 61020260 <rt_current_thread>
    61001564:	fe843703          	ld	a4,-24(s0)
    61001568:	e398                	sd	a4,0(a5)
#endif /* RT_USING_SMP */

    rt_schedule_remove_thread(to_thread);
    6100156a:	fe843503          	ld	a0,-24(s0)
    6100156e:	364000ef          	jal	ra,610018d2 <rt_schedule_remove_thread>
    to_thread->stat = RT_THREAD_RUNNING;
    61001572:	fe843783          	ld	a5,-24(s0)
    61001576:	470d                	li	a4,3
    61001578:	06e78023          	sb	a4,96(a5)

    /* switch to new thread */
#ifdef RT_USING_SMP
    rt_hw_context_switch_to((rt_ubase_t)&to_thread->sp, to_thread);
#else
    rt_hw_context_switch_to((rt_ubase_t)&to_thread->sp);
    6100157c:	fe843783          	ld	a5,-24(s0)
    61001580:	03078793          	addi	a5,a5,48
    61001584:	853e                	mv	a0,a5
    61001586:	72a050ef          	jal	ra,61006cb0 <rt_hw_context_switch_to>
#endif /* RT_USING_SMP */

    /* never come back */
}
    6100158a:	0001                	nop
    6100158c:	60e2                	ld	ra,24(sp)
    6100158e:	6442                	ld	s0,16(sp)
    61001590:	6105                	addi	sp,sp,32
    61001592:	8082                	ret

0000000061001594 <rt_schedule>:
/**
 * @brief This function will perform scheduling once. It will select one thread
 *        with the highest priority, and switch to it immediately.
 */
void rt_schedule(void)
{
    61001594:	7139                	addi	sp,sp,-64
    61001596:	fc06                	sd	ra,56(sp)
    61001598:	f822                	sd	s0,48(sp)
    6100159a:	0080                	addi	s0,sp,64
    rt_base_t level;
    struct rt_thread *to_thread;
    struct rt_thread *from_thread;

    /* disable interrupt */
    level = rt_hw_interrupt_disable();
    6100159c:	6ca050ef          	jal	ra,61006c66 <rt_hw_interrupt_disable>
    610015a0:	fca43c23          	sd	a0,-40(s0)

    /* check the scheduler is enabled or not */
    if (rt_scheduler_lock_nest == 0)
    610015a4:	85c18793          	addi	a5,gp,-1956 # 6102025c <rt_scheduler_lock_nest>
    610015a8:	00079783          	lh	a5,0(a5)
    610015ac:	1e079563          	bnez	a5,61001796 <rt_schedule+0x202>
    {
        rt_ubase_t highest_ready_priority;

        if (rt_thread_ready_priority_group != 0)
    610015b0:	85818793          	addi	a5,gp,-1960 # 61020258 <rt_thread_ready_priority_group>
    610015b4:	439c                	lw	a5,0(a5)
    610015b6:	1e078063          	beqz	a5,61001796 <rt_schedule+0x202>
        {
            /* need_insert_from_thread: need to insert from_thread to ready queue */
            int need_insert_from_thread = 0;
    610015ba:	fe042223          	sw	zero,-28(s0)

            to_thread = _scheduler_get_highest_priority_thread(&highest_ready_priority);
    610015be:	fc840793          	addi	a5,s0,-56
    610015c2:	853e                	mv	a0,a5
    610015c4:	ee7ff0ef          	jal	ra,610014aa <_scheduler_get_highest_priority_thread>
    610015c8:	fea43423          	sd	a0,-24(s0)

            if ((rt_current_thread->stat & RT_THREAD_STAT_MASK) == RT_THREAD_RUNNING)
    610015cc:	86018793          	addi	a5,gp,-1952 # 61020260 <rt_current_thread>
    610015d0:	639c                	ld	a5,0(a5)
    610015d2:	0607c783          	lbu	a5,96(a5)
    610015d6:	2781                	sext.w	a5,a5
    610015d8:	8b9d                	andi	a5,a5,7
    610015da:	2781                	sext.w	a5,a5
    610015dc:	873e                	mv	a4,a5
    610015de:	478d                	li	a5,3
    610015e0:	06f71b63          	bne	a4,a5,61001656 <rt_schedule+0xc2>
            {
                if (rt_current_thread->current_priority < highest_ready_priority)
    610015e4:	86018793          	addi	a5,gp,-1952 # 61020260 <rt_current_thread>
    610015e8:	639c                	ld	a5,0(a5)
    610015ea:	0617c783          	lbu	a5,97(a5)
    610015ee:	873e                	mv	a4,a5
    610015f0:	fc843783          	ld	a5,-56(s0)
    610015f4:	00f77863          	bgeu	a4,a5,61001604 <rt_schedule+0x70>
                {
                    to_thread = rt_current_thread;
    610015f8:	86018793          	addi	a5,gp,-1952 # 61020260 <rt_current_thread>
    610015fc:	639c                	ld	a5,0(a5)
    610015fe:	fef43423          	sd	a5,-24(s0)
    61001602:	a82d                	j	6100163c <rt_schedule+0xa8>
                }
                else if (rt_current_thread->current_priority == highest_ready_priority && (rt_current_thread->stat & RT_THREAD_STAT_YIELD_MASK) == 0)
    61001604:	86018793          	addi	a5,gp,-1952 # 61020260 <rt_current_thread>
    61001608:	639c                	ld	a5,0(a5)
    6100160a:	0617c783          	lbu	a5,97(a5)
    6100160e:	873e                	mv	a4,a5
    61001610:	fc843783          	ld	a5,-56(s0)
    61001614:	02f71163          	bne	a4,a5,61001636 <rt_schedule+0xa2>
    61001618:	86018793          	addi	a5,gp,-1952 # 61020260 <rt_current_thread>
    6100161c:	639c                	ld	a5,0(a5)
    6100161e:	0607c783          	lbu	a5,96(a5)
    61001622:	2781                	sext.w	a5,a5
    61001624:	8ba1                	andi	a5,a5,8
    61001626:	2781                	sext.w	a5,a5
    61001628:	e799                	bnez	a5,61001636 <rt_schedule+0xa2>
                {
                    to_thread = rt_current_thread;
    6100162a:	86018793          	addi	a5,gp,-1952 # 61020260 <rt_current_thread>
    6100162e:	639c                	ld	a5,0(a5)
    61001630:	fef43423          	sd	a5,-24(s0)
    61001634:	a021                	j	6100163c <rt_schedule+0xa8>
                }
                else
                {
                    need_insert_from_thread = 1;
    61001636:	4785                	li	a5,1
    61001638:	fef42223          	sw	a5,-28(s0)
                }
                rt_current_thread->stat &= ~RT_THREAD_STAT_YIELD_MASK;
    6100163c:	86018793          	addi	a5,gp,-1952 # 61020260 <rt_current_thread>
    61001640:	639c                	ld	a5,0(a5)
    61001642:	0607c703          	lbu	a4,96(a5)
    61001646:	86018793          	addi	a5,gp,-1952 # 61020260 <rt_current_thread>
    6100164a:	639c                	ld	a5,0(a5)
    6100164c:	9b5d                	andi	a4,a4,-9
    6100164e:	0ff77713          	zext.b	a4,a4
    61001652:	06e78023          	sb	a4,96(a5)
            }

            if (to_thread != rt_current_thread)
    61001656:	86018793          	addi	a5,gp,-1952 # 61020260 <rt_current_thread>
    6100165a:	639c                	ld	a5,0(a5)
    6100165c:	fe843703          	ld	a4,-24(s0)
    61001660:	0ef70a63          	beq	a4,a5,61001754 <rt_schedule+0x1c0>
            {
                /* if the destination thread is not the same as current thread */
                rt_current_priority = (rt_uint8_t)highest_ready_priority;
    61001664:	fc843783          	ld	a5,-56(s0)
    61001668:	0ff7f713          	zext.b	a4,a5
    6100166c:	86818793          	addi	a5,gp,-1944 # 61020268 <rt_current_priority>
    61001670:	00e78023          	sb	a4,0(a5)
                from_thread         = rt_current_thread;
    61001674:	86018793          	addi	a5,gp,-1952 # 61020260 <rt_current_thread>
    61001678:	639c                	ld	a5,0(a5)
    6100167a:	fcf43823          	sd	a5,-48(s0)
                rt_current_thread   = to_thread;
    6100167e:	86018793          	addi	a5,gp,-1952 # 61020260 <rt_current_thread>
    61001682:	fe843703          	ld	a4,-24(s0)
    61001686:	e398                	sd	a4,0(a5)

                RT_OBJECT_HOOK_CALL(rt_scheduler_hook, (from_thread, to_thread));
    61001688:	87018793          	addi	a5,gp,-1936 # 61020270 <rt_scheduler_hook>
    6100168c:	639c                	ld	a5,0(a5)
    6100168e:	cb89                	beqz	a5,610016a0 <rt_schedule+0x10c>
    61001690:	87018793          	addi	a5,gp,-1936 # 61020270 <rt_scheduler_hook>
    61001694:	639c                	ld	a5,0(a5)
    61001696:	fe843583          	ld	a1,-24(s0)
    6100169a:	fd043503          	ld	a0,-48(s0)
    6100169e:	9782                	jalr	a5

                if (need_insert_from_thread)
    610016a0:	fe442783          	lw	a5,-28(s0)
    610016a4:	2781                	sext.w	a5,a5
    610016a6:	c789                	beqz	a5,610016b0 <rt_schedule+0x11c>
                {
                    rt_schedule_insert_thread(from_thread);
    610016a8:	fd043503          	ld	a0,-48(s0)
    610016ac:	0fc000ef          	jal	ra,610017a8 <rt_schedule_insert_thread>
                }

                rt_schedule_remove_thread(to_thread);
    610016b0:	fe843503          	ld	a0,-24(s0)
    610016b4:	21e000ef          	jal	ra,610018d2 <rt_schedule_remove_thread>
                to_thread->stat = RT_THREAD_RUNNING | (to_thread->stat & ~RT_THREAD_STAT_MASK);
    610016b8:	fe843783          	ld	a5,-24(s0)
    610016bc:	0607c783          	lbu	a5,96(a5)
    610016c0:	0187979b          	slliw	a5,a5,0x18
    610016c4:	4187d79b          	sraiw	a5,a5,0x18
    610016c8:	9be1                	andi	a5,a5,-8
    610016ca:	0187979b          	slliw	a5,a5,0x18
    610016ce:	4187d79b          	sraiw	a5,a5,0x18
    610016d2:	0037e793          	ori	a5,a5,3
    610016d6:	0187979b          	slliw	a5,a5,0x18
    610016da:	4187d79b          	sraiw	a5,a5,0x18
    610016de:	0ff7f713          	zext.b	a4,a5
    610016e2:	fe843783          	ld	a5,-24(s0)
    610016e6:	06e78023          	sb	a4,96(a5)
                         rt_interrupt_nest, highest_ready_priority,
                         RT_NAME_MAX, to_thread->name, to_thread->sp,
                         RT_NAME_MAX, from_thread->name, from_thread->sp));

#ifdef RT_USING_OVERFLOW_CHECK
                _scheduler_stack_check(to_thread);
    610016ea:	fe843503          	ld	a0,-24(s0)
    610016ee:	cf7ff0ef          	jal	ra,610013e4 <_scheduler_stack_check>
#endif /* RT_USING_OVERFLOW_CHECK */

                if (rt_interrupt_nest == 0)
    610016f2:	92818793          	addi	a5,gp,-1752 # 61020328 <rt_interrupt_nest>
    610016f6:	0007c783          	lbu	a5,0(a5)
    610016fa:	0ff7f793          	zext.b	a5,a5
    610016fe:	ef8d                	bnez	a5,61001738 <rt_schedule+0x1a4>
                {
                    extern void rt_thread_handle_sig(rt_bool_t clean_state);

                    RT_OBJECT_HOOK_CALL(rt_scheduler_switch_hook, (from_thread));
    61001700:	87818793          	addi	a5,gp,-1928 # 61020278 <rt_scheduler_switch_hook>
    61001704:	639c                	ld	a5,0(a5)
    61001706:	c799                	beqz	a5,61001714 <rt_schedule+0x180>
    61001708:	87818793          	addi	a5,gp,-1928 # 61020278 <rt_scheduler_switch_hook>
    6100170c:	639c                	ld	a5,0(a5)
    6100170e:	fd043503          	ld	a0,-48(s0)
    61001712:	9782                	jalr	a5

                    rt_hw_context_switch((rt_ubase_t)&from_thread->sp,
    61001714:	fd043783          	ld	a5,-48(s0)
    61001718:	03078793          	addi	a5,a5,48
    6100171c:	873e                	mv	a4,a5
                            (rt_ubase_t)&to_thread->sp);
    6100171e:	fe843783          	ld	a5,-24(s0)
    61001722:	03078793          	addi	a5,a5,48
                    rt_hw_context_switch((rt_ubase_t)&from_thread->sp,
    61001726:	85be                	mv	a1,a5
    61001728:	853a                	mv	a0,a4
    6100172a:	615040ef          	jal	ra,6100653e <rt_hw_context_switch>

                    /* enable interrupt */
                    rt_hw_interrupt_enable(level);
    6100172e:	fd843503          	ld	a0,-40(s0)
    61001732:	558050ef          	jal	ra,61006c8a <rt_hw_interrupt_enable>

    /* enable interrupt */
    rt_hw_interrupt_enable(level);

__exit:
    return;
    61001736:	a0ad                	j	610017a0 <rt_schedule+0x20c>
                    rt_hw_context_switch_interrupt((rt_ubase_t)&from_thread->sp,
    61001738:	fd043783          	ld	a5,-48(s0)
    6100173c:	03078793          	addi	a5,a5,48
    61001740:	873e                	mv	a4,a5
                            (rt_ubase_t)&to_thread->sp);
    61001742:	fe843783          	ld	a5,-24(s0)
    61001746:	03078793          	addi	a5,a5,48
                    rt_hw_context_switch_interrupt((rt_ubase_t)&from_thread->sp,
    6100174a:	85be                	mv	a1,a5
    6100174c:	853a                	mv	a0,a4
    6100174e:	52f040ef          	jal	ra,6100647c <rt_hw_context_switch_interrupt>
    61001752:	a091                	j	61001796 <rt_schedule+0x202>
                rt_schedule_remove_thread(rt_current_thread);
    61001754:	86018793          	addi	a5,gp,-1952 # 61020260 <rt_current_thread>
    61001758:	639c                	ld	a5,0(a5)
    6100175a:	853e                	mv	a0,a5
    6100175c:	176000ef          	jal	ra,610018d2 <rt_schedule_remove_thread>
                rt_current_thread->stat = RT_THREAD_RUNNING | (rt_current_thread->stat & ~RT_THREAD_STAT_MASK);
    61001760:	86018793          	addi	a5,gp,-1952 # 61020260 <rt_current_thread>
    61001764:	639c                	ld	a5,0(a5)
    61001766:	0607c783          	lbu	a5,96(a5)
    6100176a:	0187979b          	slliw	a5,a5,0x18
    6100176e:	4187d79b          	sraiw	a5,a5,0x18
    61001772:	9be1                	andi	a5,a5,-8
    61001774:	0187979b          	slliw	a5,a5,0x18
    61001778:	4187d79b          	sraiw	a5,a5,0x18
    6100177c:	0037e793          	ori	a5,a5,3
    61001780:	0187971b          	slliw	a4,a5,0x18
    61001784:	4187571b          	sraiw	a4,a4,0x18
    61001788:	86018793          	addi	a5,gp,-1952 # 61020260 <rt_current_thread>
    6100178c:	639c                	ld	a5,0(a5)
    6100178e:	0ff77713          	zext.b	a4,a4
    61001792:	06e78023          	sb	a4,96(a5)
    rt_hw_interrupt_enable(level);
    61001796:	fd843503          	ld	a0,-40(s0)
    6100179a:	4f0050ef          	jal	ra,61006c8a <rt_hw_interrupt_enable>
    return;
    6100179e:	0001                	nop
}
    610017a0:	70e2                	ld	ra,56(sp)
    610017a2:	7442                	ld	s0,48(sp)
    610017a4:	6121                	addi	sp,sp,64
    610017a6:	8082                	ret

00000000610017a8 <rt_schedule_insert_thread>:
    /* enable interrupt */
    rt_hw_interrupt_enable(level);
}
#else
void rt_schedule_insert_thread(struct rt_thread *thread)
{
    610017a8:	7179                	addi	sp,sp,-48
    610017aa:	f406                	sd	ra,40(sp)
    610017ac:	f022                	sd	s0,32(sp)
    610017ae:	1800                	addi	s0,sp,48
    610017b0:	fca43c23          	sd	a0,-40(s0)
    rt_base_t level;

    RT_ASSERT(thread != RT_NULL);
    610017b4:	fd843783          	ld	a5,-40(s0)
    610017b8:	ef89                	bnez	a5,610017d2 <rt_schedule_insert_thread+0x2a>
    610017ba:	2e700613          	li	a2,743
    610017be:	00007597          	auipc	a1,0x7
    610017c2:	c2258593          	addi	a1,a1,-990 # 610083e0 <__FUNCTION__.1>
    610017c6:	00007517          	auipc	a0,0x7
    610017ca:	b9250513          	addi	a0,a0,-1134 # 61008358 <memchr+0x23a>
    610017ce:	19a030ef          	jal	ra,61004968 <rt_assert_handler>

    /* disable interrupt */
    level = rt_hw_interrupt_disable();
    610017d2:	494050ef          	jal	ra,61006c66 <rt_hw_interrupt_disable>
    610017d6:	fea43423          	sd	a0,-24(s0)

    /* it's current thread, it should be RUNNING thread */
    if (thread == rt_current_thread)
    610017da:	86018793          	addi	a5,gp,-1952 # 61020260 <rt_current_thread>
    610017de:	639c                	ld	a5,0(a5)
    610017e0:	fd843703          	ld	a4,-40(s0)
    610017e4:	02f71c63          	bne	a4,a5,6100181c <rt_schedule_insert_thread+0x74>
    {
        thread->stat = RT_THREAD_RUNNING | (thread->stat & ~RT_THREAD_STAT_MASK);
    610017e8:	fd843783          	ld	a5,-40(s0)
    610017ec:	0607c783          	lbu	a5,96(a5)
    610017f0:	0187979b          	slliw	a5,a5,0x18
    610017f4:	4187d79b          	sraiw	a5,a5,0x18
    610017f8:	9be1                	andi	a5,a5,-8
    610017fa:	0187979b          	slliw	a5,a5,0x18
    610017fe:	4187d79b          	sraiw	a5,a5,0x18
    61001802:	0037e793          	ori	a5,a5,3
    61001806:	0187979b          	slliw	a5,a5,0x18
    6100180a:	4187d79b          	sraiw	a5,a5,0x18
    6100180e:	0ff7f713          	zext.b	a4,a5
    61001812:	fd843783          	ld	a5,-40(s0)
    61001816:	06e78023          	sb	a4,96(a5)
        goto __exit;
    6100181a:	a05d                	j	610018c0 <rt_schedule_insert_thread+0x118>
    }

    /* READY thread, insert to ready queue */
    thread->stat = RT_THREAD_READY | (thread->stat & ~RT_THREAD_STAT_MASK);
    6100181c:	fd843783          	ld	a5,-40(s0)
    61001820:	0607c783          	lbu	a5,96(a5)
    61001824:	0187979b          	slliw	a5,a5,0x18
    61001828:	4187d79b          	sraiw	a5,a5,0x18
    6100182c:	9be1                	andi	a5,a5,-8
    6100182e:	0187979b          	slliw	a5,a5,0x18
    61001832:	4187d79b          	sraiw	a5,a5,0x18
    61001836:	0017e793          	ori	a5,a5,1
    6100183a:	0187979b          	slliw	a5,a5,0x18
    6100183e:	4187d79b          	sraiw	a5,a5,0x18
    61001842:	0ff7f713          	zext.b	a4,a5
    61001846:	fd843783          	ld	a5,-40(s0)
    6100184a:	06e78023          	sb	a4,96(a5)
    /* there is no time slices left(YIELD), inserting thread before ready list*/
    if((thread->stat & RT_THREAD_STAT_YIELD_MASK) != 0)
    6100184e:	fd843783          	ld	a5,-40(s0)
    61001852:	0607c783          	lbu	a5,96(a5)
    61001856:	2781                	sext.w	a5,a5
    61001858:	8ba1                	andi	a5,a5,8
    6100185a:	2781                	sext.w	a5,a5
    6100185c:	c785                	beqz	a5,61001884 <rt_schedule_insert_thread+0xdc>
    {
        rt_list_insert_before(&(rt_thread_priority_table[thread->current_priority]),
    6100185e:	fd843783          	ld	a5,-40(s0)
    61001862:	0617c783          	lbu	a5,97(a5)
    61001866:	2781                	sext.w	a5,a5
    61001868:	00479713          	slli	a4,a5,0x4
    6100186c:	a4018793          	addi	a5,gp,-1472 # 61020440 <rt_thread_priority_table>
    61001870:	973e                	add	a4,a4,a5
    61001872:	fd843783          	ld	a5,-40(s0)
    61001876:	02078793          	addi	a5,a5,32
    6100187a:	85be                	mv	a1,a5
    6100187c:	853a                	mv	a0,a4
    6100187e:	a9bff0ef          	jal	ra,61001318 <rt_list_insert_before>
    61001882:	a01d                	j	610018a8 <rt_schedule_insert_thread+0x100>
                              &(thread->tlist));
    }
    /* there are some time slices left, inserting thread after ready list to schedule it firstly at next time*/
    else
    {
        rt_list_insert_after(&(rt_thread_priority_table[thread->current_priority]),
    61001884:	fd843783          	ld	a5,-40(s0)
    61001888:	0617c783          	lbu	a5,97(a5)
    6100188c:	2781                	sext.w	a5,a5
    6100188e:	00479713          	slli	a4,a5,0x4
    61001892:	a4018793          	addi	a5,gp,-1472 # 61020440 <rt_thread_priority_table>
    61001896:	973e                	add	a4,a4,a5
    61001898:	fd843783          	ld	a5,-40(s0)
    6100189c:	02078793          	addi	a5,a5,32
    610018a0:	85be                	mv	a1,a5
    610018a2:	853a                	mv	a0,a4
    610018a4:	a33ff0ef          	jal	ra,610012d6 <rt_list_insert_after>

    /* set priority mask */
#if RT_THREAD_PRIORITY_MAX > 32
    rt_thread_ready_table[thread->number] |= thread->high_mask;
#endif /* RT_THREAD_PRIORITY_MAX > 32 */
    rt_thread_ready_priority_group |= thread->number_mask;
    610018a8:	fd843783          	ld	a5,-40(s0)
    610018ac:	53f8                	lw	a4,100(a5)
    610018ae:	85818793          	addi	a5,gp,-1960 # 61020258 <rt_thread_ready_priority_group>
    610018b2:	439c                	lw	a5,0(a5)
    610018b4:	8fd9                	or	a5,a5,a4
    610018b6:	0007871b          	sext.w	a4,a5
    610018ba:	85818793          	addi	a5,gp,-1960 # 61020258 <rt_thread_ready_priority_group>
    610018be:	c398                	sw	a4,0(a5)

__exit:
    /* enable interrupt */
    rt_hw_interrupt_enable(level);
    610018c0:	fe843503          	ld	a0,-24(s0)
    610018c4:	3c6050ef          	jal	ra,61006c8a <rt_hw_interrupt_enable>
}
    610018c8:	0001                	nop
    610018ca:	70a2                	ld	ra,40(sp)
    610018cc:	7402                	ld	s0,32(sp)
    610018ce:	6145                	addi	sp,sp,48
    610018d0:	8082                	ret

00000000610018d2 <rt_schedule_remove_thread>:
    /* enable interrupt */
    rt_hw_interrupt_enable(level);
}
#else
void rt_schedule_remove_thread(struct rt_thread *thread)
{
    610018d2:	7179                	addi	sp,sp,-48
    610018d4:	f406                	sd	ra,40(sp)
    610018d6:	f022                	sd	s0,32(sp)
    610018d8:	1800                	addi	s0,sp,48
    610018da:	fca43c23          	sd	a0,-40(s0)
    rt_base_t level;

    RT_ASSERT(thread != RT_NULL);
    610018de:	fd843783          	ld	a5,-40(s0)
    610018e2:	ef89                	bnez	a5,610018fc <rt_schedule_remove_thread+0x2a>
    610018e4:	35100613          	li	a2,849
    610018e8:	00007597          	auipc	a1,0x7
    610018ec:	b1858593          	addi	a1,a1,-1256 # 61008400 <__FUNCTION__.0>
    610018f0:	00007517          	auipc	a0,0x7
    610018f4:	a6850513          	addi	a0,a0,-1432 # 61008358 <memchr+0x23a>
    610018f8:	070030ef          	jal	ra,61004968 <rt_assert_handler>

    /* disable interrupt */
    level = rt_hw_interrupt_disable();
    610018fc:	36a050ef          	jal	ra,61006c66 <rt_hw_interrupt_disable>
    61001900:	fea43423          	sd	a0,-24(s0)
    RT_DEBUG_LOG(RT_DEBUG_SCHEDULER, ("remove thread[%.*s], the priority: %d\n",
                                      RT_NAME_MAX, thread->name,
                                      thread->current_priority));

    /* remove thread from ready list */
    rt_list_remove(&(thread->tlist));
    61001904:	fd843783          	ld	a5,-40(s0)
    61001908:	02078793          	addi	a5,a5,32
    6100190c:	853e                	mv	a0,a5
    6100190e:	a4dff0ef          	jal	ra,6100135a <rt_list_remove>
    if (rt_list_isempty(&(rt_thread_priority_table[thread->current_priority])))
    61001912:	fd843783          	ld	a5,-40(s0)
    61001916:	0617c783          	lbu	a5,97(a5)
    6100191a:	2781                	sext.w	a5,a5
    6100191c:	00479713          	slli	a4,a5,0x4
    61001920:	a4018793          	addi	a5,gp,-1472 # 61020440 <rt_thread_priority_table>
    61001924:	97ba                	add	a5,a5,a4
    61001926:	853e                	mv	a0,a5
    61001928:	a77ff0ef          	jal	ra,6100139e <rt_list_isempty>
    6100192c:	87aa                	mv	a5,a0
    6100192e:	c38d                	beqz	a5,61001950 <rt_schedule_remove_thread+0x7e>
        if (rt_thread_ready_table[thread->number] == 0)
        {
            rt_thread_ready_priority_group &= ~thread->number_mask;
        }
#else
        rt_thread_ready_priority_group &= ~thread->number_mask;
    61001930:	fd843783          	ld	a5,-40(s0)
    61001934:	53fc                	lw	a5,100(a5)
    61001936:	fff7c793          	not	a5,a5
    6100193a:	0007871b          	sext.w	a4,a5
    6100193e:	85818793          	addi	a5,gp,-1960 # 61020258 <rt_thread_ready_priority_group>
    61001942:	439c                	lw	a5,0(a5)
    61001944:	8ff9                	and	a5,a5,a4
    61001946:	0007871b          	sext.w	a4,a5
    6100194a:	85818793          	addi	a5,gp,-1960 # 61020258 <rt_thread_ready_priority_group>
    6100194e:	c398                	sw	a4,0(a5)
#endif /* RT_THREAD_PRIORITY_MAX > 32 */
    }

    /* enable interrupt */
    rt_hw_interrupt_enable(level);
    61001950:	fe843503          	ld	a0,-24(s0)
    61001954:	336050ef          	jal	ra,61006c8a <rt_hw_interrupt_enable>
}
    61001958:	0001                	nop
    6100195a:	70a2                	ld	ra,40(sp)
    6100195c:	7402                	ld	s0,32(sp)
    6100195e:	6145                	addi	sp,sp,48
    61001960:	8082                	ret

0000000061001962 <rt_enter_critical>:
    /* enable interrupt */
    rt_hw_local_irq_enable(level);
}
#else
void rt_enter_critical(void)
{
    61001962:	1101                	addi	sp,sp,-32
    61001964:	ec06                	sd	ra,24(sp)
    61001966:	e822                	sd	s0,16(sp)
    61001968:	1000                	addi	s0,sp,32
    rt_base_t level;

    /* disable interrupt */
    level = rt_hw_interrupt_disable();
    6100196a:	2fc050ef          	jal	ra,61006c66 <rt_hw_interrupt_disable>
    6100196e:	fea43423          	sd	a0,-24(s0)

    /*
     * the maximal number of nest is RT_UINT16_MAX, which is big
     * enough and does not check here
     */
    rt_scheduler_lock_nest ++;
    61001972:	85c18793          	addi	a5,gp,-1956 # 6102025c <rt_scheduler_lock_nest>
    61001976:	00079783          	lh	a5,0(a5)
    6100197a:	17c2                	slli	a5,a5,0x30
    6100197c:	93c1                	srli	a5,a5,0x30
    6100197e:	2785                	addiw	a5,a5,1
    61001980:	17c2                	slli	a5,a5,0x30
    61001982:	93c1                	srli	a5,a5,0x30
    61001984:	0107971b          	slliw	a4,a5,0x10
    61001988:	4107571b          	sraiw	a4,a4,0x10
    6100198c:	85c18793          	addi	a5,gp,-1956 # 6102025c <rt_scheduler_lock_nest>
    61001990:	00e79023          	sh	a4,0(a5)

    /* enable interrupt */
    rt_hw_interrupt_enable(level);
    61001994:	fe843503          	ld	a0,-24(s0)
    61001998:	2f2050ef          	jal	ra,61006c8a <rt_hw_interrupt_enable>
}
    6100199c:	0001                	nop
    6100199e:	60e2                	ld	ra,24(sp)
    610019a0:	6442                	ld	s0,16(sp)
    610019a2:	6105                	addi	sp,sp,32
    610019a4:	8082                	ret

00000000610019a6 <rt_exit_critical>:
        rt_hw_local_irq_enable(level);
    }
}
#else
void rt_exit_critical(void)
{
    610019a6:	1101                	addi	sp,sp,-32
    610019a8:	ec06                	sd	ra,24(sp)
    610019aa:	e822                	sd	s0,16(sp)
    610019ac:	1000                	addi	s0,sp,32
    rt_base_t level;

    /* disable interrupt */
    level = rt_hw_interrupt_disable();
    610019ae:	2b8050ef          	jal	ra,61006c66 <rt_hw_interrupt_disable>
    610019b2:	fea43423          	sd	a0,-24(s0)

    rt_scheduler_lock_nest --;
    610019b6:	85c18793          	addi	a5,gp,-1956 # 6102025c <rt_scheduler_lock_nest>
    610019ba:	00079783          	lh	a5,0(a5)
    610019be:	17c2                	slli	a5,a5,0x30
    610019c0:	93c1                	srli	a5,a5,0x30
    610019c2:	37fd                	addiw	a5,a5,-1
    610019c4:	17c2                	slli	a5,a5,0x30
    610019c6:	93c1                	srli	a5,a5,0x30
    610019c8:	0107971b          	slliw	a4,a5,0x10
    610019cc:	4107571b          	sraiw	a4,a4,0x10
    610019d0:	85c18793          	addi	a5,gp,-1956 # 6102025c <rt_scheduler_lock_nest>
    610019d4:	00e79023          	sh	a4,0(a5)
    if (rt_scheduler_lock_nest <= 0)
    610019d8:	85c18793          	addi	a5,gp,-1956 # 6102025c <rt_scheduler_lock_nest>
    610019dc:	00079783          	lh	a5,0(a5)
    610019e0:	2781                	sext.w	a5,a5
    610019e2:	02f04163          	bgtz	a5,61001a04 <rt_exit_critical+0x5e>
    {
        rt_scheduler_lock_nest = 0;
    610019e6:	85c18793          	addi	a5,gp,-1956 # 6102025c <rt_scheduler_lock_nest>
    610019ea:	00079023          	sh	zero,0(a5)
        /* enable interrupt */
        rt_hw_interrupt_enable(level);
    610019ee:	fe843503          	ld	a0,-24(s0)
    610019f2:	298050ef          	jal	ra,61006c8a <rt_hw_interrupt_enable>

        if (rt_current_thread)
    610019f6:	86018793          	addi	a5,gp,-1952 # 61020260 <rt_current_thread>
    610019fa:	639c                	ld	a5,0(a5)
    610019fc:	cb81                	beqz	a5,61001a0c <rt_exit_critical+0x66>
        {
            /* if scheduler is started, do a schedule */
            rt_schedule();
    610019fe:	b97ff0ef          	jal	ra,61001594 <rt_schedule>
    else
    {
        /* enable interrupt */
        rt_hw_interrupt_enable(level);
    }
}
    61001a02:	a029                	j	61001a0c <rt_exit_critical+0x66>
        rt_hw_interrupt_enable(level);
    61001a04:	fe843503          	ld	a0,-24(s0)
    61001a08:	282050ef          	jal	ra,61006c8a <rt_hw_interrupt_enable>
}
    61001a0c:	0001                	nop
    61001a0e:	60e2                	ld	ra,24(sp)
    61001a10:	6442                	ld	s0,16(sp)
    61001a12:	6105                	addi	sp,sp,32
    61001a14:	8082                	ret

0000000061001a16 <rt_critical_level>:
 * @brief Get the scheduler lock level.
 *
 * @return the level of the scheduler lock. 0 means unlocked.
 */
rt_uint16_t rt_critical_level(void)
{
    61001a16:	1141                	addi	sp,sp,-16
    61001a18:	e422                	sd	s0,8(sp)
    61001a1a:	0800                	addi	s0,sp,16
#ifdef RT_USING_SMP
    struct rt_thread *current_thread = rt_cpu_self()->current_thread;

    return current_thread->critical_lock_nest;
#else
    return rt_scheduler_lock_nest;
    61001a1c:	85c18793          	addi	a5,gp,-1956 # 6102025c <rt_scheduler_lock_nest>
    61001a20:	00079783          	lh	a5,0(a5)
    61001a24:	17c2                	slli	a5,a5,0x30
    61001a26:	93c1                	srli	a5,a5,0x30
#endif /* RT_USING_SMP */
}
    61001a28:	853e                	mv	a0,a5
    61001a2a:	6422                	ld	s0,8(sp)
    61001a2c:	0141                	addi	sp,sp,16
    61001a2e:	8082                	ret

0000000061001a30 <rt_tick_get>:
 * @brief    This function will return current tick from operating system startup.
 *
 * @return   Return current tick.
 */
rt_tick_t rt_tick_get(void)
{
    61001a30:	1141                	addi	sp,sp,-16
    61001a32:	e422                	sd	s0,8(sp)
    61001a34:	0800                	addi	s0,sp,16
    /* return the global tick */
    return rt_tick;
    61001a36:	88018793          	addi	a5,gp,-1920 # 61020280 <rt_tick>
    61001a3a:	439c                	lw	a5,0(a5)
    61001a3c:	2781                	sext.w	a5,a5
}
    61001a3e:	853e                	mv	a0,a5
    61001a40:	6422                	ld	s0,8(sp)
    61001a42:	0141                	addi	sp,sp,16
    61001a44:	8082                	ret

0000000061001a46 <rt_tick_increase>:
/**
 * @brief    This function will notify kernel there is one tick passed.
 *           Normally, this function is invoked by clock ISR.
 */
void rt_tick_increase(void)
{
    61001a46:	1101                	addi	sp,sp,-32
    61001a48:	ec06                	sd	ra,24(sp)
    61001a4a:	e822                	sd	s0,16(sp)
    61001a4c:	1000                	addi	s0,sp,32
    struct rt_thread *thread;
    rt_base_t level;

    RT_OBJECT_HOOK_CALL(rt_tick_hook, ());
    61001a4e:	88818793          	addi	a5,gp,-1912 # 61020288 <rt_tick_hook>
    61001a52:	639c                	ld	a5,0(a5)
    61001a54:	c789                	beqz	a5,61001a5e <rt_tick_increase+0x18>
    61001a56:	88818793          	addi	a5,gp,-1912 # 61020288 <rt_tick_hook>
    61001a5a:	639c                	ld	a5,0(a5)
    61001a5c:	9782                	jalr	a5

    level = rt_hw_interrupt_disable();
    61001a5e:	208050ef          	jal	ra,61006c66 <rt_hw_interrupt_disable>
    61001a62:	fea43423          	sd	a0,-24(s0)

    /* increase the global tick */
#ifdef RT_USING_SMP
    rt_cpu_self()->tick ++;
#else
    ++ rt_tick;
    61001a66:	88018793          	addi	a5,gp,-1920 # 61020280 <rt_tick>
    61001a6a:	439c                	lw	a5,0(a5)
    61001a6c:	2781                	sext.w	a5,a5
    61001a6e:	2785                	addiw	a5,a5,1
    61001a70:	0007871b          	sext.w	a4,a5
    61001a74:	88018793          	addi	a5,gp,-1920 # 61020280 <rt_tick>
    61001a78:	c398                	sw	a4,0(a5)
#endif /* RT_USING_SMP */

    /* check time slice */
    thread = rt_thread_self();
    61001a7a:	544010ef          	jal	ra,61002fbe <rt_thread_self>
    61001a7e:	fea43023          	sd	a0,-32(s0)

    -- thread->remaining_tick;
    61001a82:	fe043783          	ld	a5,-32(s0)
    61001a86:	7fbc                	ld	a5,120(a5)
    61001a88:	fff78713          	addi	a4,a5,-1
    61001a8c:	fe043783          	ld	a5,-32(s0)
    61001a90:	ffb8                	sd	a4,120(a5)
    if (thread->remaining_tick == 0)
    61001a92:	fe043783          	ld	a5,-32(s0)
    61001a96:	7fbc                	ld	a5,120(a5)
    61001a98:	eb95                	bnez	a5,61001acc <rt_tick_increase+0x86>
    {
        /* change to initialized tick */
        thread->remaining_tick = thread->init_tick;
    61001a9a:	fe043783          	ld	a5,-32(s0)
    61001a9e:	7bb8                	ld	a4,112(a5)
    61001aa0:	fe043783          	ld	a5,-32(s0)
    61001aa4:	ffb8                	sd	a4,120(a5)
        thread->stat |= RT_THREAD_STAT_YIELD;
    61001aa6:	fe043783          	ld	a5,-32(s0)
    61001aaa:	0607c783          	lbu	a5,96(a5)
    61001aae:	0087e793          	ori	a5,a5,8
    61001ab2:	0ff7f713          	zext.b	a4,a5
    61001ab6:	fe043783          	ld	a5,-32(s0)
    61001aba:	06e78023          	sb	a4,96(a5)

        rt_hw_interrupt_enable(level);
    61001abe:	fe843503          	ld	a0,-24(s0)
    61001ac2:	1c8050ef          	jal	ra,61006c8a <rt_hw_interrupt_enable>
        rt_schedule();
    61001ac6:	acfff0ef          	jal	ra,61001594 <rt_schedule>
    61001aca:	a029                	j	61001ad4 <rt_tick_increase+0x8e>
    }
    else
    {
        rt_hw_interrupt_enable(level);
    61001acc:	fe843503          	ld	a0,-24(s0)
    61001ad0:	1ba050ef          	jal	ra,61006c8a <rt_hw_interrupt_enable>
    }

    /* check timer */
    rt_timer_check();
    61001ad4:	07d030ef          	jal	ra,61005350 <rt_timer_check>
}
    61001ad8:	0001                	nop
    61001ada:	60e2                	ld	ra,24(sp)
    61001adc:	6442                	ld	s0,16(sp)
    61001ade:	6105                	addi	sp,sp,32
    61001ae0:	8082                	ret

0000000061001ae2 <rt_tick_from_millisecond>:
 *              - Max 0x7fffffff
 *
 * @return   Return the calculated tick.
 */
rt_tick_t rt_tick_from_millisecond(rt_int32_t ms)
{
    61001ae2:	7179                	addi	sp,sp,-48
    61001ae4:	f422                	sd	s0,40(sp)
    61001ae6:	1800                	addi	s0,sp,48
    61001ae8:	87aa                	mv	a5,a0
    61001aea:	fcf42e23          	sw	a5,-36(s0)
    rt_tick_t tick;

    if (ms < 0)
    61001aee:	fdc42783          	lw	a5,-36(s0)
    61001af2:	2781                	sext.w	a5,a5
    61001af4:	0007d663          	bgez	a5,61001b00 <rt_tick_from_millisecond+0x1e>
    {
        tick = (rt_tick_t)RT_WAITING_FOREVER;
    61001af8:	57fd                	li	a5,-1
    61001afa:	fef42623          	sw	a5,-20(s0)
    61001afe:	a8a1                	j	61001b56 <rt_tick_from_millisecond+0x74>
    }
    else
    {
        tick = RT_TICK_PER_SECOND * (ms / 1000);
    61001b00:	fdc42703          	lw	a4,-36(s0)
    61001b04:	3e800793          	li	a5,1000
    61001b08:	02f747bb          	divw	a5,a4,a5
    61001b0c:	0007871b          	sext.w	a4,a5
    61001b10:	3e800793          	li	a5,1000
    61001b14:	02f707bb          	mulw	a5,a4,a5
    61001b18:	2781                	sext.w	a5,a5
    61001b1a:	fef42623          	sw	a5,-20(s0)
        tick += (RT_TICK_PER_SECOND * (ms % 1000) + 999) / 1000;
    61001b1e:	fdc42703          	lw	a4,-36(s0)
    61001b22:	3e800793          	li	a5,1000
    61001b26:	02f767bb          	remw	a5,a4,a5
    61001b2a:	0007871b          	sext.w	a4,a5
    61001b2e:	3e800793          	li	a5,1000
    61001b32:	02f707bb          	mulw	a5,a4,a5
    61001b36:	2781                	sext.w	a5,a5
    61001b38:	3e77879b          	addiw	a5,a5,999
    61001b3c:	2781                	sext.w	a5,a5
    61001b3e:	873e                	mv	a4,a5
    61001b40:	3e800793          	li	a5,1000
    61001b44:	02f747bb          	divw	a5,a4,a5
    61001b48:	2781                	sext.w	a5,a5
    61001b4a:	2781                	sext.w	a5,a5
    61001b4c:	fec42703          	lw	a4,-20(s0)
    61001b50:	9fb9                	addw	a5,a5,a4
    61001b52:	fef42623          	sw	a5,-20(s0)
    }

    /* return the calculated tick */
    return tick;
    61001b56:	fec42783          	lw	a5,-20(s0)
}
    61001b5a:	853e                	mv	a0,a5
    61001b5c:	7422                	ld	s0,40(sp)
    61001b5e:	6145                	addi	sp,sp,48
    61001b60:	8082                	ret

0000000061001b62 <rt_device_find>:
 * @param name is the device driver's name.
 *
 * @return the registered device driver on successful, or RT_NULL on failure.
 */
rt_device_t rt_device_find(const char *name)
{
    61001b62:	1101                	addi	sp,sp,-32
    61001b64:	ec06                	sd	ra,24(sp)
    61001b66:	e822                	sd	s0,16(sp)
    61001b68:	1000                	addi	s0,sp,32
    61001b6a:	fea43423          	sd	a0,-24(s0)
    return (rt_device_t)rt_object_find(name, RT_Object_Class_Device);
    61001b6e:	45a5                	li	a1,9
    61001b70:	fe843503          	ld	a0,-24(s0)
    61001b74:	7bd000ef          	jal	ra,61002b30 <rt_object_find>
    61001b78:	87aa                	mv	a5,a0
}
    61001b7a:	853e                	mv	a0,a5
    61001b7c:	60e2                	ld	ra,24(sp)
    61001b7e:	6442                	ld	s0,16(sp)
    61001b80:	6105                	addi	sp,sp,32
    61001b82:	8082                	ret

0000000061001b84 <rt_device_open>:
 * @param oflag is the flags for device open.
 *
 * @return the result, RT_EOK on successfully.
 */
rt_err_t rt_device_open(rt_device_t dev, rt_uint16_t oflag)
{
    61001b84:	7179                	addi	sp,sp,-48
    61001b86:	f406                	sd	ra,40(sp)
    61001b88:	f022                	sd	s0,32(sp)
    61001b8a:	1800                	addi	s0,sp,48
    61001b8c:	fca43c23          	sd	a0,-40(s0)
    61001b90:	87ae                	mv	a5,a1
    61001b92:	fcf41b23          	sh	a5,-42(s0)
    rt_err_t result = RT_EOK;
    61001b96:	fe043423          	sd	zero,-24(s0)

    /* parameter check */
    RT_ASSERT(dev != RT_NULL);
    61001b9a:	fd843783          	ld	a5,-40(s0)
    61001b9e:	ef89                	bnez	a5,61001bb8 <rt_device_open+0x34>
    61001ba0:	0d000613          	li	a2,208
    61001ba4:	00007597          	auipc	a1,0x7
    61001ba8:	97c58593          	addi	a1,a1,-1668 # 61008520 <__FUNCTION__.6>
    61001bac:	00007517          	auipc	a0,0x7
    61001bb0:	87450513          	addi	a0,a0,-1932 # 61008420 <__FUNCTION__.0+0x20>
    61001bb4:	5b5020ef          	jal	ra,61004968 <rt_assert_handler>
    RT_ASSERT(rt_object_get_type(&dev->parent) == RT_Object_Class_Device);
    61001bb8:	fd843783          	ld	a5,-40(s0)
    61001bbc:	853e                	mv	a0,a5
    61001bbe:	72f000ef          	jal	ra,61002aec <rt_object_get_type>
    61001bc2:	87aa                	mv	a5,a0
    61001bc4:	873e                	mv	a4,a5
    61001bc6:	47a5                	li	a5,9
    61001bc8:	00f70e63          	beq	a4,a5,61001be4 <rt_device_open+0x60>
    61001bcc:	0d100613          	li	a2,209
    61001bd0:	00007597          	auipc	a1,0x7
    61001bd4:	95058593          	addi	a1,a1,-1712 # 61008520 <__FUNCTION__.6>
    61001bd8:	00007517          	auipc	a0,0x7
    61001bdc:	85850513          	addi	a0,a0,-1960 # 61008430 <__FUNCTION__.0+0x30>
    61001be0:	589020ef          	jal	ra,61004968 <rt_assert_handler>

    /* if device is not initialized, initialize it. */
    if (!(dev->flag & RT_DEVICE_FLAG_ACTIVATED))
    61001be4:	fd843783          	ld	a5,-40(s0)
    61001be8:	0247d783          	lhu	a5,36(a5)
    61001bec:	2781                	sext.w	a5,a5
    61001bee:	8bc1                	andi	a5,a5,16
    61001bf0:	2781                	sext.w	a5,a5
    61001bf2:	ebb9                	bnez	a5,61001c48 <rt_device_open+0xc4>
    {
        if (device_init != RT_NULL)
    61001bf4:	fd843783          	ld	a5,-40(s0)
    61001bf8:	63bc                	ld	a5,64(a5)
    61001bfa:	cb95                	beqz	a5,61001c2e <rt_device_open+0xaa>
        {
            result = device_init(dev);
    61001bfc:	fd843783          	ld	a5,-40(s0)
    61001c00:	63bc                	ld	a5,64(a5)
    61001c02:	fd843503          	ld	a0,-40(s0)
    61001c06:	9782                	jalr	a5
    61001c08:	fea43423          	sd	a0,-24(s0)
            if (result != RT_EOK)
    61001c0c:	fe843783          	ld	a5,-24(s0)
    61001c10:	cf99                	beqz	a5,61001c2e <rt_device_open+0xaa>
            {
                RT_DEBUG_LOG(RT_DEBUG_DEVICE, ("To initialize device:%s failed. The error code is %d\n",
    61001c12:	fd843783          	ld	a5,-40(s0)
    61001c16:	fe843603          	ld	a2,-24(s0)
    61001c1a:	85be                	mv	a1,a5
    61001c1c:	00007517          	auipc	a0,0x7
    61001c20:	8b450513          	addi	a0,a0,-1868 # 610084d0 <__FUNCTION__.0+0xd0>
    61001c24:	223020ef          	jal	ra,61004646 <rt_kprintf>
                           dev->parent.name, result));

                return result;
    61001c28:	fe843783          	ld	a5,-24(s0)
    61001c2c:	a0c5                	j	61001d0c <rt_device_open+0x188>
            }
        }

        dev->flag |= RT_DEVICE_FLAG_ACTIVATED;
    61001c2e:	fd843783          	ld	a5,-40(s0)
    61001c32:	0247d783          	lhu	a5,36(a5)
    61001c36:	0107e793          	ori	a5,a5,16
    61001c3a:	03079713          	slli	a4,a5,0x30
    61001c3e:	9341                	srli	a4,a4,0x30
    61001c40:	fd843783          	ld	a5,-40(s0)
    61001c44:	02e79223          	sh	a4,36(a5)
    }

    /* device is a stand alone device and opened */
    if ((dev->flag & RT_DEVICE_FLAG_STANDALONE) &&
    61001c48:	fd843783          	ld	a5,-40(s0)
    61001c4c:	0247d783          	lhu	a5,36(a5)
    61001c50:	2781                	sext.w	a5,a5
    61001c52:	8ba1                	andi	a5,a5,8
    61001c54:	2781                	sext.w	a5,a5
    61001c56:	cb99                	beqz	a5,61001c6c <rt_device_open+0xe8>
        (dev->open_flag & RT_DEVICE_OFLAG_OPEN))
    61001c58:	fd843783          	ld	a5,-40(s0)
    61001c5c:	0267d783          	lhu	a5,38(a5)
    61001c60:	2781                	sext.w	a5,a5
    61001c62:	8ba1                	andi	a5,a5,8
    61001c64:	2781                	sext.w	a5,a5
    if ((dev->flag & RT_DEVICE_FLAG_STANDALONE) &&
    61001c66:	c399                	beqz	a5,61001c6c <rt_device_open+0xe8>
    {
        return -RT_EBUSY;
    61001c68:	57e5                	li	a5,-7
    61001c6a:	a04d                	j	61001d0c <rt_device_open+0x188>
    }

    /* call device_open interface */
    if (device_open != RT_NULL)
    61001c6c:	fd843783          	ld	a5,-40(s0)
    61001c70:	67bc                	ld	a5,72(a5)
    61001c72:	cf89                	beqz	a5,61001c8c <rt_device_open+0x108>
    {
        result = device_open(dev, oflag);
    61001c74:	fd843783          	ld	a5,-40(s0)
    61001c78:	67b8                	ld	a4,72(a5)
    61001c7a:	fd645783          	lhu	a5,-42(s0)
    61001c7e:	85be                	mv	a1,a5
    61001c80:	fd843503          	ld	a0,-40(s0)
    61001c84:	9702                	jalr	a4
    61001c86:	fea43423          	sd	a0,-24(s0)
    61001c8a:	a831                	j	61001ca6 <rt_device_open+0x122>
    }
    else
    {
        /* set open flag */
        dev->open_flag = (oflag & RT_DEVICE_OFLAG_MASK);
    61001c8c:	fd645703          	lhu	a4,-42(s0)
    61001c90:	6785                	lui	a5,0x1
    61001c92:	f0f78793          	addi	a5,a5,-241 # f0f <__stack_size-0xf1>
    61001c96:	8ff9                	and	a5,a5,a4
    61001c98:	03079713          	slli	a4,a5,0x30
    61001c9c:	9341                	srli	a4,a4,0x30
    61001c9e:	fd843783          	ld	a5,-40(s0)
    61001ca2:	02e79323          	sh	a4,38(a5)
    }

    /* set open flag */
    if (result == RT_EOK || result == -RT_ENOSYS)
    61001ca6:	fe843783          	ld	a5,-24(s0)
    61001caa:	c791                	beqz	a5,61001cb6 <rt_device_open+0x132>
    61001cac:	fe843703          	ld	a4,-24(s0)
    61001cb0:	57e9                	li	a5,-6
    61001cb2:	04f71b63          	bne	a4,a5,61001d08 <rt_device_open+0x184>
    {
        dev->open_flag |= RT_DEVICE_OFLAG_OPEN;
    61001cb6:	fd843783          	ld	a5,-40(s0)
    61001cba:	0267d783          	lhu	a5,38(a5)
    61001cbe:	0087e793          	ori	a5,a5,8
    61001cc2:	03079713          	slli	a4,a5,0x30
    61001cc6:	9341                	srli	a4,a4,0x30
    61001cc8:	fd843783          	ld	a5,-40(s0)
    61001ccc:	02e79323          	sh	a4,38(a5)

        dev->ref_count++;
    61001cd0:	fd843783          	ld	a5,-40(s0)
    61001cd4:	0287c783          	lbu	a5,40(a5)
    61001cd8:	2785                	addiw	a5,a5,1
    61001cda:	0ff7f713          	zext.b	a4,a5
    61001cde:	fd843783          	ld	a5,-40(s0)
    61001ce2:	02e78423          	sb	a4,40(a5)
        /* don't let bad things happen silently. If you are bitten by this assert,
         * please set the ref_count to a bigger type. */
        RT_ASSERT(dev->ref_count != 0);
    61001ce6:	fd843783          	ld	a5,-40(s0)
    61001cea:	0287c783          	lbu	a5,40(a5)
    61001cee:	ef89                	bnez	a5,61001d08 <rt_device_open+0x184>
    61001cf0:	0ff00613          	li	a2,255
    61001cf4:	00007597          	auipc	a1,0x7
    61001cf8:	82c58593          	addi	a1,a1,-2004 # 61008520 <__FUNCTION__.6>
    61001cfc:	00007517          	auipc	a0,0x7
    61001d00:	80c50513          	addi	a0,a0,-2036 # 61008508 <__FUNCTION__.0+0x108>
    61001d04:	465020ef          	jal	ra,61004968 <rt_assert_handler>
    }

    return result;
    61001d08:	fe843783          	ld	a5,-24(s0)
}
    61001d0c:	853e                	mv	a0,a5
    61001d0e:	70a2                	ld	ra,40(sp)
    61001d10:	7402                	ld	s0,32(sp)
    61001d12:	6145                	addi	sp,sp,48
    61001d14:	8082                	ret

0000000061001d16 <rt_device_close>:
 * @param dev is the pointer of device driver structure.
 *
 * @return the result, RT_EOK on successfully.
 */
rt_err_t rt_device_close(rt_device_t dev)
{
    61001d16:	7179                	addi	sp,sp,-48
    61001d18:	f406                	sd	ra,40(sp)
    61001d1a:	f022                	sd	s0,32(sp)
    61001d1c:	1800                	addi	s0,sp,48
    61001d1e:	fca43c23          	sd	a0,-40(s0)
    rt_err_t result = RT_EOK;
    61001d22:	fe043423          	sd	zero,-24(s0)

    /* parameter check */
    RT_ASSERT(dev != RT_NULL);
    61001d26:	fd843783          	ld	a5,-40(s0)
    61001d2a:	ef89                	bnez	a5,61001d44 <rt_device_close+0x2e>
    61001d2c:	11200613          	li	a2,274
    61001d30:	00007597          	auipc	a1,0x7
    61001d34:	80058593          	addi	a1,a1,-2048 # 61008530 <__FUNCTION__.5>
    61001d38:	00006517          	auipc	a0,0x6
    61001d3c:	6e850513          	addi	a0,a0,1768 # 61008420 <__FUNCTION__.0+0x20>
    61001d40:	429020ef          	jal	ra,61004968 <rt_assert_handler>
    RT_ASSERT(rt_object_get_type(&dev->parent) == RT_Object_Class_Device);
    61001d44:	fd843783          	ld	a5,-40(s0)
    61001d48:	853e                	mv	a0,a5
    61001d4a:	5a3000ef          	jal	ra,61002aec <rt_object_get_type>
    61001d4e:	87aa                	mv	a5,a0
    61001d50:	873e                	mv	a4,a5
    61001d52:	47a5                	li	a5,9
    61001d54:	00f70e63          	beq	a4,a5,61001d70 <rt_device_close+0x5a>
    61001d58:	11300613          	li	a2,275
    61001d5c:	00006597          	auipc	a1,0x6
    61001d60:	7d458593          	addi	a1,a1,2004 # 61008530 <__FUNCTION__.5>
    61001d64:	00006517          	auipc	a0,0x6
    61001d68:	6cc50513          	addi	a0,a0,1740 # 61008430 <__FUNCTION__.0+0x30>
    61001d6c:	3fd020ef          	jal	ra,61004968 <rt_assert_handler>

    if (dev->ref_count == 0)
    61001d70:	fd843783          	ld	a5,-40(s0)
    61001d74:	0287c783          	lbu	a5,40(a5)
    61001d78:	e399                	bnez	a5,61001d7e <rt_device_close+0x68>
        return -RT_ERROR;
    61001d7a:	57fd                	li	a5,-1
    61001d7c:	a8a9                	j	61001dd6 <rt_device_close+0xc0>

    dev->ref_count--;
    61001d7e:	fd843783          	ld	a5,-40(s0)
    61001d82:	0287c783          	lbu	a5,40(a5)
    61001d86:	37fd                	addiw	a5,a5,-1
    61001d88:	0ff7f713          	zext.b	a4,a5
    61001d8c:	fd843783          	ld	a5,-40(s0)
    61001d90:	02e78423          	sb	a4,40(a5)

    if (dev->ref_count != 0)
    61001d94:	fd843783          	ld	a5,-40(s0)
    61001d98:	0287c783          	lbu	a5,40(a5)
    61001d9c:	c399                	beqz	a5,61001da2 <rt_device_close+0x8c>
        return RT_EOK;
    61001d9e:	4781                	li	a5,0
    61001da0:	a81d                	j	61001dd6 <rt_device_close+0xc0>

    /* call device_close interface */
    if (device_close != RT_NULL)
    61001da2:	fd843783          	ld	a5,-40(s0)
    61001da6:	6bbc                	ld	a5,80(a5)
    61001da8:	cb89                	beqz	a5,61001dba <rt_device_close+0xa4>
    {
        result = device_close(dev);
    61001daa:	fd843783          	ld	a5,-40(s0)
    61001dae:	6bbc                	ld	a5,80(a5)
    61001db0:	fd843503          	ld	a0,-40(s0)
    61001db4:	9782                	jalr	a5
    61001db6:	fea43423          	sd	a0,-24(s0)
    }

    /* set open flag */
    if (result == RT_EOK || result == -RT_ENOSYS)
    61001dba:	fe843783          	ld	a5,-24(s0)
    61001dbe:	c791                	beqz	a5,61001dca <rt_device_close+0xb4>
    61001dc0:	fe843703          	ld	a4,-24(s0)
    61001dc4:	57e9                	li	a5,-6
    61001dc6:	00f71663          	bne	a4,a5,61001dd2 <rt_device_close+0xbc>
        dev->open_flag = RT_DEVICE_OFLAG_CLOSE;
    61001dca:	fd843783          	ld	a5,-40(s0)
    61001dce:	02079323          	sh	zero,38(a5)

    return result;
    61001dd2:	fe843783          	ld	a5,-24(s0)
}
    61001dd6:	853e                	mv	a0,a5
    61001dd8:	70a2                	ld	ra,40(sp)
    61001dda:	7402                	ld	s0,32(sp)
    61001ddc:	6145                	addi	sp,sp,48
    61001dde:	8082                	ret

0000000061001de0 <rt_device_write>:
 */
rt_size_t rt_device_write(rt_device_t dev,
                          rt_off_t    pos,
                          const void *buffer,
                          rt_size_t   size)
{
    61001de0:	7179                	addi	sp,sp,-48
    61001de2:	f406                	sd	ra,40(sp)
    61001de4:	f022                	sd	s0,32(sp)
    61001de6:	1800                	addi	s0,sp,48
    61001de8:	fea43423          	sd	a0,-24(s0)
    61001dec:	feb43023          	sd	a1,-32(s0)
    61001df0:	fcc43c23          	sd	a2,-40(s0)
    61001df4:	fcd43823          	sd	a3,-48(s0)
    /* parameter check */
    RT_ASSERT(dev != RT_NULL);
    61001df8:	fe843783          	ld	a5,-24(s0)
    61001dfc:	ef89                	bnez	a5,61001e16 <rt_device_write+0x36>
    61001dfe:	16b00613          	li	a2,363
    61001e02:	00006597          	auipc	a1,0x6
    61001e06:	73e58593          	addi	a1,a1,1854 # 61008540 <__FUNCTION__.3>
    61001e0a:	00006517          	auipc	a0,0x6
    61001e0e:	61650513          	addi	a0,a0,1558 # 61008420 <__FUNCTION__.0+0x20>
    61001e12:	357020ef          	jal	ra,61004968 <rt_assert_handler>
    RT_ASSERT(rt_object_get_type(&dev->parent) == RT_Object_Class_Device);
    61001e16:	fe843783          	ld	a5,-24(s0)
    61001e1a:	853e                	mv	a0,a5
    61001e1c:	4d1000ef          	jal	ra,61002aec <rt_object_get_type>
    61001e20:	87aa                	mv	a5,a0
    61001e22:	873e                	mv	a4,a5
    61001e24:	47a5                	li	a5,9
    61001e26:	00f70e63          	beq	a4,a5,61001e42 <rt_device_write+0x62>
    61001e2a:	16c00613          	li	a2,364
    61001e2e:	00006597          	auipc	a1,0x6
    61001e32:	71258593          	addi	a1,a1,1810 # 61008540 <__FUNCTION__.3>
    61001e36:	00006517          	auipc	a0,0x6
    61001e3a:	5fa50513          	addi	a0,a0,1530 # 61008430 <__FUNCTION__.0+0x30>
    61001e3e:	32b020ef          	jal	ra,61004968 <rt_assert_handler>

    if (dev->ref_count == 0)
    61001e42:	fe843783          	ld	a5,-24(s0)
    61001e46:	0287c783          	lbu	a5,40(a5)
    61001e4a:	e791                	bnez	a5,61001e56 <rt_device_write+0x76>
    {
        rt_set_errno(-RT_ERROR);
    61001e4c:	557d                	li	a0,-1
    61001e4e:	0f7010ef          	jal	ra,61003744 <rt_set_errno>
        return 0;
    61001e52:	4781                	li	a5,0
    61001e54:	a03d                	j	61001e82 <rt_device_write+0xa2>
    }

    /* call device_write interface */
    if (device_write != RT_NULL)
    61001e56:	fe843783          	ld	a5,-24(s0)
    61001e5a:	73bc                	ld	a5,96(a5)
    61001e5c:	cf99                	beqz	a5,61001e7a <rt_device_write+0x9a>
    {
        return device_write(dev, pos, buffer, size);
    61001e5e:	fe843783          	ld	a5,-24(s0)
    61001e62:	73bc                	ld	a5,96(a5)
    61001e64:	fd043683          	ld	a3,-48(s0)
    61001e68:	fd843603          	ld	a2,-40(s0)
    61001e6c:	fe043583          	ld	a1,-32(s0)
    61001e70:	fe843503          	ld	a0,-24(s0)
    61001e74:	9782                	jalr	a5
    61001e76:	87aa                	mv	a5,a0
    61001e78:	a029                	j	61001e82 <rt_device_write+0xa2>
    }

    /* set error code */
    rt_set_errno(-RT_ENOSYS);
    61001e7a:	5569                	li	a0,-6
    61001e7c:	0c9010ef          	jal	ra,61003744 <rt_set_errno>

    return 0;
    61001e80:	4781                	li	a5,0
}
    61001e82:	853e                	mv	a0,a5
    61001e84:	70a2                	ld	ra,40(sp)
    61001e86:	7402                	ld	s0,32(sp)
    61001e88:	6145                	addi	sp,sp,48
    61001e8a:	8082                	ret

0000000061001e8c <plug_holes>:
    }
}
#endif /* RT_USING_MEMTRACE */

static void plug_holes(struct rt_small_mem *m, struct rt_small_mem_item *mem)
{
    61001e8c:	7179                	addi	sp,sp,-48
    61001e8e:	f406                	sd	ra,40(sp)
    61001e90:	f022                	sd	s0,32(sp)
    61001e92:	1800                	addi	s0,sp,48
    61001e94:	fca43c23          	sd	a0,-40(s0)
    61001e98:	fcb43823          	sd	a1,-48(s0)
    struct rt_small_mem_item *nmem;
    struct rt_small_mem_item *pmem;

    RT_ASSERT((rt_uint8_t *)mem >= m->heap_ptr);
    61001e9c:	fd843783          	ld	a5,-40(s0)
    61001ea0:	67bc                	ld	a5,72(a5)
    61001ea2:	fd043703          	ld	a4,-48(s0)
    61001ea6:	00f77e63          	bgeu	a4,a5,61001ec2 <plug_holes+0x36>
    61001eaa:	08200613          	li	a2,130
    61001eae:	00007597          	auipc	a1,0x7
    61001eb2:	ad258593          	addi	a1,a1,-1326 # 61008980 <__FUNCTION__.4>
    61001eb6:	00006517          	auipc	a0,0x6
    61001eba:	69a50513          	addi	a0,a0,1690 # 61008550 <__FUNCTION__.3+0x10>
    61001ebe:	2ab020ef          	jal	ra,61004968 <rt_assert_handler>
    RT_ASSERT((rt_uint8_t *)mem < (rt_uint8_t *)m->heap_end);
    61001ec2:	fd843783          	ld	a5,-40(s0)
    61001ec6:	6bbc                	ld	a5,80(a5)
    61001ec8:	fd043703          	ld	a4,-48(s0)
    61001ecc:	00f76e63          	bltu	a4,a5,61001ee8 <plug_holes+0x5c>
    61001ed0:	08300613          	li	a2,131
    61001ed4:	00007597          	auipc	a1,0x7
    61001ed8:	aac58593          	addi	a1,a1,-1364 # 61008980 <__FUNCTION__.4>
    61001edc:	00006517          	auipc	a0,0x6
    61001ee0:	69c50513          	addi	a0,a0,1692 # 61008578 <__FUNCTION__.3+0x38>
    61001ee4:	285020ef          	jal	ra,61004968 <rt_assert_handler>

    /* plug hole forward */
    nmem = (struct rt_small_mem_item *)&m->heap_ptr[mem->next];
    61001ee8:	fd843783          	ld	a5,-40(s0)
    61001eec:	67b8                	ld	a4,72(a5)
    61001eee:	fd043783          	ld	a5,-48(s0)
    61001ef2:	679c                	ld	a5,8(a5)
    61001ef4:	97ba                	add	a5,a5,a4
    61001ef6:	fef43423          	sd	a5,-24(s0)
    if (mem != nmem && !MEM_ISUSED(nmem) &&
    61001efa:	fd043703          	ld	a4,-48(s0)
    61001efe:	fe843783          	ld	a5,-24(s0)
    61001f02:	06f70463          	beq	a4,a5,61001f6a <plug_holes+0xde>
    61001f06:	fe843783          	ld	a5,-24(s0)
    61001f0a:	639c                	ld	a5,0(a5)
    61001f0c:	8b85                	andi	a5,a5,1
    61001f0e:	efb1                	bnez	a5,61001f6a <plug_holes+0xde>
        (rt_uint8_t *)nmem != (rt_uint8_t *)m->heap_end)
    61001f10:	fd843783          	ld	a5,-40(s0)
    61001f14:	6bbc                	ld	a5,80(a5)
    if (mem != nmem && !MEM_ISUSED(nmem) &&
    61001f16:	fe843703          	ld	a4,-24(s0)
    61001f1a:	04f70863          	beq	a4,a5,61001f6a <plug_holes+0xde>
    {
        /* if mem->next is unused and not end of m->heap_ptr,
         * combine mem and mem->next
         */
        if (m->lfree == nmem)
    61001f1e:	fd843783          	ld	a5,-40(s0)
    61001f22:	6fbc                	ld	a5,88(a5)
    61001f24:	fe843703          	ld	a4,-24(s0)
    61001f28:	00f71763          	bne	a4,a5,61001f36 <plug_holes+0xaa>
        {
            m->lfree = mem;
    61001f2c:	fd843783          	ld	a5,-40(s0)
    61001f30:	fd043703          	ld	a4,-48(s0)
    61001f34:	efb8                	sd	a4,88(a5)
        }
        nmem->pool_ptr = 0;
    61001f36:	fe843783          	ld	a5,-24(s0)
    61001f3a:	0007b023          	sd	zero,0(a5)
        mem->next = nmem->next;
    61001f3e:	fe843783          	ld	a5,-24(s0)
    61001f42:	6798                	ld	a4,8(a5)
    61001f44:	fd043783          	ld	a5,-48(s0)
    61001f48:	e798                	sd	a4,8(a5)
        ((struct rt_small_mem_item *)&m->heap_ptr[nmem->next])->prev = (rt_uint8_t *)mem - m->heap_ptr;
    61001f4a:	fd843783          	ld	a5,-40(s0)
    61001f4e:	67bc                	ld	a5,72(a5)
    61001f50:	fd043703          	ld	a4,-48(s0)
    61001f54:	40f706b3          	sub	a3,a4,a5
    61001f58:	fd843783          	ld	a5,-40(s0)
    61001f5c:	67b8                	ld	a4,72(a5)
    61001f5e:	fe843783          	ld	a5,-24(s0)
    61001f62:	679c                	ld	a5,8(a5)
    61001f64:	97ba                	add	a5,a5,a4
    61001f66:	8736                	mv	a4,a3
    61001f68:	eb98                	sd	a4,16(a5)
    }

    /* plug hole backward */
    pmem = (struct rt_small_mem_item *)&m->heap_ptr[mem->prev];
    61001f6a:	fd843783          	ld	a5,-40(s0)
    61001f6e:	67b8                	ld	a4,72(a5)
    61001f70:	fd043783          	ld	a5,-48(s0)
    61001f74:	6b9c                	ld	a5,16(a5)
    61001f76:	97ba                	add	a5,a5,a4
    61001f78:	fef43023          	sd	a5,-32(s0)
    if (pmem != mem && !MEM_ISUSED(pmem))
    61001f7c:	fe043703          	ld	a4,-32(s0)
    61001f80:	fd043783          	ld	a5,-48(s0)
    61001f84:	04f70d63          	beq	a4,a5,61001fde <plug_holes+0x152>
    61001f88:	fe043783          	ld	a5,-32(s0)
    61001f8c:	639c                	ld	a5,0(a5)
    61001f8e:	8b85                	andi	a5,a5,1
    61001f90:	e7b9                	bnez	a5,61001fde <plug_holes+0x152>
    {
        /* if mem->prev is unused, combine mem and mem->prev */
        if (m->lfree == mem)
    61001f92:	fd843783          	ld	a5,-40(s0)
    61001f96:	6fbc                	ld	a5,88(a5)
    61001f98:	fd043703          	ld	a4,-48(s0)
    61001f9c:	00f71763          	bne	a4,a5,61001faa <plug_holes+0x11e>
        {
            m->lfree = pmem;
    61001fa0:	fd843783          	ld	a5,-40(s0)
    61001fa4:	fe043703          	ld	a4,-32(s0)
    61001fa8:	efb8                	sd	a4,88(a5)
        }
        mem->pool_ptr = 0;
    61001faa:	fd043783          	ld	a5,-48(s0)
    61001fae:	0007b023          	sd	zero,0(a5)
        pmem->next = mem->next;
    61001fb2:	fd043783          	ld	a5,-48(s0)
    61001fb6:	6798                	ld	a4,8(a5)
    61001fb8:	fe043783          	ld	a5,-32(s0)
    61001fbc:	e798                	sd	a4,8(a5)
        ((struct rt_small_mem_item *)&m->heap_ptr[mem->next])->prev = (rt_uint8_t *)pmem - m->heap_ptr;
    61001fbe:	fd843783          	ld	a5,-40(s0)
    61001fc2:	67bc                	ld	a5,72(a5)
    61001fc4:	fe043703          	ld	a4,-32(s0)
    61001fc8:	40f706b3          	sub	a3,a4,a5
    61001fcc:	fd843783          	ld	a5,-40(s0)
    61001fd0:	67b8                	ld	a4,72(a5)
    61001fd2:	fd043783          	ld	a5,-48(s0)
    61001fd6:	679c                	ld	a5,8(a5)
    61001fd8:	97ba                	add	a5,a5,a4
    61001fda:	8736                	mv	a4,a3
    61001fdc:	eb98                	sd	a4,16(a5)
    }
}
    61001fde:	0001                	nop
    61001fe0:	70a2                	ld	ra,40(sp)
    61001fe2:	7402                	ld	s0,32(sp)
    61001fe4:	6145                	addi	sp,sp,48
    61001fe6:	8082                	ret

0000000061001fe8 <rt_smem_init>:
 * @return Return a pointer to the memory object. When the return value is RT_NULL, it means the init failed.
 */
rt_smem_t rt_smem_init(const char    *name,
                     void          *begin_addr,
                     rt_size_t      size)
{
    61001fe8:	711d                	addi	sp,sp,-96
    61001fea:	ec86                	sd	ra,88(sp)
    61001fec:	e8a2                	sd	s0,80(sp)
    61001fee:	1080                	addi	s0,sp,96
    61001ff0:	faa43c23          	sd	a0,-72(s0)
    61001ff4:	fab43823          	sd	a1,-80(s0)
    61001ff8:	fac43423          	sd	a2,-88(s0)
    struct rt_small_mem_item *mem;
    struct rt_small_mem *small_mem;
    rt_ubase_t start_addr, begin_align, end_align, mem_size;

    small_mem = (struct rt_small_mem *)RT_ALIGN((rt_ubase_t)begin_addr, RT_ALIGN_SIZE);
    61001ffc:	fb043783          	ld	a5,-80(s0)
    61002000:	078d                	addi	a5,a5,3
    61002002:	9bf1                	andi	a5,a5,-4
    61002004:	fef43423          	sd	a5,-24(s0)
    start_addr = (rt_ubase_t)small_mem + sizeof(*small_mem);
    61002008:	fe843783          	ld	a5,-24(s0)
    6100200c:	06878793          	addi	a5,a5,104
    61002010:	fef43023          	sd	a5,-32(s0)
    begin_align = RT_ALIGN((rt_ubase_t)start_addr, RT_ALIGN_SIZE);
    61002014:	fe043783          	ld	a5,-32(s0)
    61002018:	078d                	addi	a5,a5,3
    6100201a:	9bf1                	andi	a5,a5,-4
    6100201c:	fcf43c23          	sd	a5,-40(s0)
    end_align   = RT_ALIGN_DOWN((rt_ubase_t)begin_addr + size, RT_ALIGN_SIZE);
    61002020:	fb043703          	ld	a4,-80(s0)
    61002024:	fa843783          	ld	a5,-88(s0)
    61002028:	97ba                	add	a5,a5,a4
    6100202a:	9bf1                	andi	a5,a5,-4
    6100202c:	fcf43823          	sd	a5,-48(s0)

    /* alignment addr */
    if ((end_align > (2 * SIZEOF_STRUCT_MEM)) &&
    61002030:	fd043703          	ld	a4,-48(s0)
    61002034:	03000793          	li	a5,48
    61002038:	10e7f663          	bgeu	a5,a4,61002144 <rt_smem_init+0x15c>
        ((end_align - 2 * SIZEOF_STRUCT_MEM) >= start_addr))
    6100203c:	fd043783          	ld	a5,-48(s0)
    61002040:	fd078793          	addi	a5,a5,-48
    if ((end_align > (2 * SIZEOF_STRUCT_MEM)) &&
    61002044:	fe043703          	ld	a4,-32(s0)
    61002048:	0ee7ee63          	bltu	a5,a4,61002144 <rt_smem_init+0x15c>
    {
        /* calculate the aligned memory size */
        mem_size = end_align - begin_align - 2 * SIZEOF_STRUCT_MEM;
    6100204c:	fd043703          	ld	a4,-48(s0)
    61002050:	fd843783          	ld	a5,-40(s0)
    61002054:	40f707b3          	sub	a5,a4,a5
    61002058:	fd078793          	addi	a5,a5,-48
    6100205c:	fcf43423          	sd	a5,-56(s0)
                   (rt_ubase_t)begin_addr, (rt_ubase_t)begin_addr + size);

        return RT_NULL;
    }

    rt_memset(small_mem, 0, sizeof(*small_mem));
    61002060:	06800613          	li	a2,104
    61002064:	4581                	li	a1,0
    61002066:	fe843503          	ld	a0,-24(s0)
    6100206a:	72e010ef          	jal	ra,61003798 <rt_memset>
    /* initialize small memory object */
    rt_object_init(&(small_mem->parent.parent), RT_Object_Class_Memory, name);
    6100206e:	fe843783          	ld	a5,-24(s0)
    61002072:	fb843603          	ld	a2,-72(s0)
    61002076:	45b1                	li	a1,12
    61002078:	853e                	mv	a0,a5
    6100207a:	6e8000ef          	jal	ra,61002762 <rt_object_init>
    small_mem->parent.algorithm = "small";
    6100207e:	fe843783          	ld	a5,-24(s0)
    61002082:	00006717          	auipc	a4,0x6
    61002086:	52670713          	addi	a4,a4,1318 # 610085a8 <__FUNCTION__.3+0x68>
    6100208a:	f398                	sd	a4,32(a5)
    small_mem->parent.address = begin_align;
    6100208c:	fe843783          	ld	a5,-24(s0)
    61002090:	fd843703          	ld	a4,-40(s0)
    61002094:	f798                	sd	a4,40(a5)
    small_mem->parent.total = mem_size;
    61002096:	fe843783          	ld	a5,-24(s0)
    6100209a:	fc843703          	ld	a4,-56(s0)
    6100209e:	fb98                	sd	a4,48(a5)
    small_mem->mem_size_aligned = mem_size;
    610020a0:	fe843783          	ld	a5,-24(s0)
    610020a4:	fc843703          	ld	a4,-56(s0)
    610020a8:	f3b8                	sd	a4,96(a5)

    /* point to begin address of heap */
    small_mem->heap_ptr = (rt_uint8_t *)begin_align;
    610020aa:	fd843703          	ld	a4,-40(s0)
    610020ae:	fe843783          	ld	a5,-24(s0)
    610020b2:	e7b8                	sd	a4,72(a5)

    RT_DEBUG_LOG(RT_DEBUG_MEM, ("mem init, heap begin address 0x%x, size %d\n",
                                (rt_ubase_t)small_mem->heap_ptr, small_mem->mem_size_aligned));

    /* initialize the start of the heap */
    mem        = (struct rt_small_mem_item *)small_mem->heap_ptr;
    610020b4:	fe843783          	ld	a5,-24(s0)
    610020b8:	67bc                	ld	a5,72(a5)
    610020ba:	fcf43023          	sd	a5,-64(s0)
    mem->pool_ptr = MEM_FREED();
    610020be:	fe843703          	ld	a4,-24(s0)
    610020c2:	4785                	li	a5,1
    610020c4:	1782                	slli	a5,a5,0x20
    610020c6:	17f9                	addi	a5,a5,-2
    610020c8:	8f7d                	and	a4,a4,a5
    610020ca:	fc043783          	ld	a5,-64(s0)
    610020ce:	e398                	sd	a4,0(a5)
    mem->next  = small_mem->mem_size_aligned + SIZEOF_STRUCT_MEM;
    610020d0:	fe843783          	ld	a5,-24(s0)
    610020d4:	73bc                	ld	a5,96(a5)
    610020d6:	01878713          	addi	a4,a5,24
    610020da:	fc043783          	ld	a5,-64(s0)
    610020de:	e798                	sd	a4,8(a5)
    mem->prev  = 0;
    610020e0:	fc043783          	ld	a5,-64(s0)
    610020e4:	0007b823          	sd	zero,16(a5)
#ifdef RT_USING_MEMTRACE
    rt_smem_setname(mem, "INIT");
#endif /* RT_USING_MEMTRACE */

    /* initialize the end of the heap */
    small_mem->heap_end        = (struct rt_small_mem_item *)&small_mem->heap_ptr[mem->next];
    610020e8:	fe843783          	ld	a5,-24(s0)
    610020ec:	67b8                	ld	a4,72(a5)
    610020ee:	fc043783          	ld	a5,-64(s0)
    610020f2:	679c                	ld	a5,8(a5)
    610020f4:	973e                	add	a4,a4,a5
    610020f6:	fe843783          	ld	a5,-24(s0)
    610020fa:	ebb8                	sd	a4,80(a5)
    small_mem->heap_end->pool_ptr = MEM_USED();
    610020fc:	fe843703          	ld	a4,-24(s0)
    61002100:	57fd                	li	a5,-1
    61002102:	9381                	srli	a5,a5,0x20
    61002104:	8ff9                	and	a5,a5,a4
    61002106:	0017e713          	ori	a4,a5,1
    6100210a:	fe843783          	ld	a5,-24(s0)
    6100210e:	6bbc                	ld	a5,80(a5)
    61002110:	e398                	sd	a4,0(a5)
    small_mem->heap_end->next  = small_mem->mem_size_aligned + SIZEOF_STRUCT_MEM;
    61002112:	fe843783          	ld	a5,-24(s0)
    61002116:	73b8                	ld	a4,96(a5)
    61002118:	fe843783          	ld	a5,-24(s0)
    6100211c:	6bbc                	ld	a5,80(a5)
    6100211e:	0761                	addi	a4,a4,24
    61002120:	e798                	sd	a4,8(a5)
    small_mem->heap_end->prev  = small_mem->mem_size_aligned + SIZEOF_STRUCT_MEM;
    61002122:	fe843783          	ld	a5,-24(s0)
    61002126:	73b8                	ld	a4,96(a5)
    61002128:	fe843783          	ld	a5,-24(s0)
    6100212c:	6bbc                	ld	a5,80(a5)
    6100212e:	0761                	addi	a4,a4,24
    61002130:	eb98                	sd	a4,16(a5)
#ifdef RT_USING_MEMTRACE
    rt_smem_setname(small_mem->heap_end, "INIT");
#endif /* RT_USING_MEMTRACE */

    /* initialize the lowest-free pointer to the start of the heap */
    small_mem->lfree = (struct rt_small_mem_item *)small_mem->heap_ptr;
    61002132:	fe843783          	ld	a5,-24(s0)
    61002136:	67b8                	ld	a4,72(a5)
    61002138:	fe843783          	ld	a5,-24(s0)
    6100213c:	efb8                	sd	a4,88(a5)

    return &small_mem->parent;
    6100213e:	fe843783          	ld	a5,-24(s0)
    61002142:	a00d                	j	61002164 <rt_smem_init+0x17c>
        rt_kprintf("mem init, error begin address 0x%x, and end address 0x%x\n",
    61002144:	fb043683          	ld	a3,-80(s0)
                   (rt_ubase_t)begin_addr, (rt_ubase_t)begin_addr + size);
    61002148:	fb043703          	ld	a4,-80(s0)
        rt_kprintf("mem init, error begin address 0x%x, and end address 0x%x\n",
    6100214c:	fa843783          	ld	a5,-88(s0)
    61002150:	97ba                	add	a5,a5,a4
    61002152:	863e                	mv	a2,a5
    61002154:	85b6                	mv	a1,a3
    61002156:	00006517          	auipc	a0,0x6
    6100215a:	45a50513          	addi	a0,a0,1114 # 610085b0 <__FUNCTION__.3+0x70>
    6100215e:	4e8020ef          	jal	ra,61004646 <rt_kprintf>
        return RT_NULL;
    61002162:	4781                	li	a5,0
}
    61002164:	853e                	mv	a0,a5
    61002166:	60e6                	ld	ra,88(sp)
    61002168:	6446                	ld	s0,80(sp)
    6100216a:	6125                	addi	sp,sp,96
    6100216c:	8082                	ret

000000006100216e <rt_smem_alloc>:
 * @param size is the minimum size of the requested block in bytes.
 *
 * @return the pointer to allocated memory or NULL if no free memory was found.
 */
void *rt_smem_alloc(rt_smem_t m, rt_size_t size)
{
    6100216e:	715d                	addi	sp,sp,-80
    61002170:	e486                	sd	ra,72(sp)
    61002172:	e0a2                	sd	s0,64(sp)
    61002174:	0880                	addi	s0,sp,80
    61002176:	faa43c23          	sd	a0,-72(s0)
    6100217a:	fab43823          	sd	a1,-80(s0)
    rt_size_t ptr, ptr2;
    struct rt_small_mem_item *mem, *mem2;
    struct rt_small_mem *small_mem;

    if (size == 0)
    6100217e:	fb043783          	ld	a5,-80(s0)
    61002182:	e399                	bnez	a5,61002188 <rt_smem_alloc+0x1a>
        return RT_NULL;
    61002184:	4781                	li	a5,0
    61002186:	a62d                	j	610024b0 <rt_smem_alloc+0x342>

    RT_ASSERT(m != RT_NULL);
    61002188:	fb843783          	ld	a5,-72(s0)
    6100218c:	ef89                	bnez	a5,610021a6 <rt_smem_alloc+0x38>
    6100218e:	12000613          	li	a2,288
    61002192:	00006597          	auipc	a1,0x6
    61002196:	7fe58593          	addi	a1,a1,2046 # 61008990 <__FUNCTION__.2>
    6100219a:	00006517          	auipc	a0,0x6
    6100219e:	45650513          	addi	a0,a0,1110 # 610085f0 <__FUNCTION__.3+0xb0>
    610021a2:	7c6020ef          	jal	ra,61004968 <rt_assert_handler>
    RT_ASSERT(rt_object_get_type(&m->parent) == RT_Object_Class_Memory);
    610021a6:	fb843783          	ld	a5,-72(s0)
    610021aa:	853e                	mv	a0,a5
    610021ac:	141000ef          	jal	ra,61002aec <rt_object_get_type>
    610021b0:	87aa                	mv	a5,a0
    610021b2:	873e                	mv	a4,a5
    610021b4:	47b1                	li	a5,12
    610021b6:	00f70e63          	beq	a4,a5,610021d2 <rt_smem_alloc+0x64>
    610021ba:	12100613          	li	a2,289
    610021be:	00006597          	auipc	a1,0x6
    610021c2:	7d258593          	addi	a1,a1,2002 # 61008990 <__FUNCTION__.2>
    610021c6:	00006517          	auipc	a0,0x6
    610021ca:	43a50513          	addi	a0,a0,1082 # 61008600 <__FUNCTION__.3+0xc0>
    610021ce:	79a020ef          	jal	ra,61004968 <rt_assert_handler>
    RT_ASSERT(rt_object_is_systemobject(&m->parent));
    610021d2:	fb843783          	ld	a5,-72(s0)
    610021d6:	853e                	mv	a0,a5
    610021d8:	0c7000ef          	jal	ra,61002a9e <rt_object_is_systemobject>
    610021dc:	87aa                	mv	a5,a0
    610021de:	ef89                	bnez	a5,610021f8 <rt_smem_alloc+0x8a>
    610021e0:	12200613          	li	a2,290
    610021e4:	00006597          	auipc	a1,0x6
    610021e8:	7ac58593          	addi	a1,a1,1964 # 61008990 <__FUNCTION__.2>
    610021ec:	00006517          	auipc	a0,0x6
    610021f0:	45450513          	addi	a0,a0,1108 # 61008640 <__FUNCTION__.3+0x100>
    610021f4:	774020ef          	jal	ra,61004968 <rt_assert_handler>
    else
    {
        RT_DEBUG_LOG(RT_DEBUG_MEM, ("malloc size %d\n", size));
    }

    small_mem = (struct rt_small_mem *)m;
    610021f8:	fb843783          	ld	a5,-72(s0)
    610021fc:	fef43023          	sd	a5,-32(s0)
    /* alignment size */
    size = RT_ALIGN(size, RT_ALIGN_SIZE);
    61002200:	fb043783          	ld	a5,-80(s0)
    61002204:	078d                	addi	a5,a5,3
    61002206:	9bf1                	andi	a5,a5,-4
    61002208:	faf43823          	sd	a5,-80(s0)

    /* every data block must be at least MIN_SIZE_ALIGNED long */
    if (size < MIN_SIZE_ALIGNED)
    6100220c:	fb043703          	ld	a4,-80(s0)
    61002210:	47ad                	li	a5,11
    61002212:	00e7e563          	bltu	a5,a4,6100221c <rt_smem_alloc+0xae>
        size = MIN_SIZE_ALIGNED;
    61002216:	47b1                	li	a5,12
    61002218:	faf43823          	sd	a5,-80(s0)

    if (size > small_mem->mem_size_aligned)
    6100221c:	fe043783          	ld	a5,-32(s0)
    61002220:	73bc                	ld	a5,96(a5)
    61002222:	fb043703          	ld	a4,-80(s0)
    61002226:	00e7f463          	bgeu	a5,a4,6100222e <rt_smem_alloc+0xc0>
    {
        RT_DEBUG_LOG(RT_DEBUG_MEM, ("no memory\n"));

        return RT_NULL;
    6100222a:	4781                	li	a5,0
    6100222c:	a451                	j	610024b0 <rt_smem_alloc+0x342>
    }

    for (ptr = (rt_uint8_t *)small_mem->lfree - small_mem->heap_ptr;
    6100222e:	fe043783          	ld	a5,-32(s0)
    61002232:	6fb8                	ld	a4,88(a5)
    61002234:	fe043783          	ld	a5,-32(s0)
    61002238:	67bc                	ld	a5,72(a5)
    6100223a:	40f707b3          	sub	a5,a4,a5
    6100223e:	fef43423          	sd	a5,-24(s0)
    61002242:	ac99                	j	61002498 <rt_smem_alloc+0x32a>
         ptr <= small_mem->mem_size_aligned - size;
         ptr = ((struct rt_small_mem_item *)&small_mem->heap_ptr[ptr])->next)
    {
        mem = (struct rt_small_mem_item *)&small_mem->heap_ptr[ptr];
    61002244:	fe043783          	ld	a5,-32(s0)
    61002248:	67b8                	ld	a4,72(a5)
    6100224a:	fe843783          	ld	a5,-24(s0)
    6100224e:	97ba                	add	a5,a5,a4
    61002250:	fcf43c23          	sd	a5,-40(s0)

        if ((!MEM_ISUSED(mem)) && (mem->next - (ptr + SIZEOF_STRUCT_MEM)) >= size)
    61002254:	fd843783          	ld	a5,-40(s0)
    61002258:	639c                	ld	a5,0(a5)
    6100225a:	8b85                	andi	a5,a5,1
    6100225c:	22079563          	bnez	a5,61002486 <rt_smem_alloc+0x318>
    61002260:	fd843783          	ld	a5,-40(s0)
    61002264:	6798                	ld	a4,8(a5)
    61002266:	fe843783          	ld	a5,-24(s0)
    6100226a:	40f707b3          	sub	a5,a4,a5
    6100226e:	17a1                	addi	a5,a5,-24
    61002270:	fb043703          	ld	a4,-80(s0)
    61002274:	20e7e963          	bltu	a5,a4,61002486 <rt_smem_alloc+0x318>
        {
            /* mem is not used and at least perfect fit is possible:
             * mem->next - (ptr + SIZEOF_STRUCT_MEM) gives us the 'user data size' of mem */

            if (mem->next - (ptr + SIZEOF_STRUCT_MEM) >=
    61002278:	fd843783          	ld	a5,-40(s0)
    6100227c:	6798                	ld	a4,8(a5)
    6100227e:	fe843783          	ld	a5,-24(s0)
    61002282:	40f707b3          	sub	a5,a4,a5
    61002286:	fe878713          	addi	a4,a5,-24
                (size + SIZEOF_STRUCT_MEM + MIN_SIZE_ALIGNED))
    6100228a:	fb043783          	ld	a5,-80(s0)
    6100228e:	02478793          	addi	a5,a5,36
            if (mem->next - (ptr + SIZEOF_STRUCT_MEM) >=
    61002292:	0af76863          	bltu	a4,a5,61002342 <rt_smem_alloc+0x1d4>
                 * struct rt_small_mem_item would fit in but no data between mem2 and mem2->next
                 * @todo we could leave out MIN_SIZE_ALIGNED. We would create an empty
                 *       region that couldn't hold data, but when mem->next gets freed,
                 *       the 2 regions would be combined, resulting in more free memory
                 */
                ptr2 = ptr + SIZEOF_STRUCT_MEM + size;
    61002296:	fe843703          	ld	a4,-24(s0)
    6100229a:	fb043783          	ld	a5,-80(s0)
    6100229e:	97ba                	add	a5,a5,a4
    610022a0:	07e1                	addi	a5,a5,24
    610022a2:	fcf43823          	sd	a5,-48(s0)

                /* create mem2 struct */
                mem2       = (struct rt_small_mem_item *)&small_mem->heap_ptr[ptr2];
    610022a6:	fe043783          	ld	a5,-32(s0)
    610022aa:	67b8                	ld	a4,72(a5)
    610022ac:	fd043783          	ld	a5,-48(s0)
    610022b0:	97ba                	add	a5,a5,a4
    610022b2:	fcf43423          	sd	a5,-56(s0)
                mem2->pool_ptr = MEM_FREED();
    610022b6:	fe043703          	ld	a4,-32(s0)
    610022ba:	4785                	li	a5,1
    610022bc:	1782                	slli	a5,a5,0x20
    610022be:	17f9                	addi	a5,a5,-2
    610022c0:	8f7d                	and	a4,a4,a5
    610022c2:	fc843783          	ld	a5,-56(s0)
    610022c6:	e398                	sd	a4,0(a5)
                mem2->next = mem->next;
    610022c8:	fd843783          	ld	a5,-40(s0)
    610022cc:	6798                	ld	a4,8(a5)
    610022ce:	fc843783          	ld	a5,-56(s0)
    610022d2:	e798                	sd	a4,8(a5)
                mem2->prev = ptr;
    610022d4:	fc843783          	ld	a5,-56(s0)
    610022d8:	fe843703          	ld	a4,-24(s0)
    610022dc:	eb98                	sd	a4,16(a5)
#ifdef RT_USING_MEMTRACE
                rt_smem_setname(mem2, "    ");
#endif /* RT_USING_MEMTRACE */

                /* and insert it between mem and mem->next */
                mem->next = ptr2;
    610022de:	fd843783          	ld	a5,-40(s0)
    610022e2:	fd043703          	ld	a4,-48(s0)
    610022e6:	e798                	sd	a4,8(a5)

                if (mem2->next != small_mem->mem_size_aligned + SIZEOF_STRUCT_MEM)
    610022e8:	fc843783          	ld	a5,-56(s0)
    610022ec:	6798                	ld	a4,8(a5)
    610022ee:	fe043783          	ld	a5,-32(s0)
    610022f2:	73bc                	ld	a5,96(a5)
    610022f4:	07e1                	addi	a5,a5,24
    610022f6:	00f70c63          	beq	a4,a5,6100230e <rt_smem_alloc+0x1a0>
                {
                    ((struct rt_small_mem_item *)&small_mem->heap_ptr[mem2->next])->prev = ptr2;
    610022fa:	fe043783          	ld	a5,-32(s0)
    610022fe:	67b8                	ld	a4,72(a5)
    61002300:	fc843783          	ld	a5,-56(s0)
    61002304:	679c                	ld	a5,8(a5)
    61002306:	97ba                	add	a5,a5,a4
    61002308:	fd043703          	ld	a4,-48(s0)
    6100230c:	eb98                	sd	a4,16(a5)
                }
                small_mem->parent.used += (size + SIZEOF_STRUCT_MEM);
    6100230e:	fe043783          	ld	a5,-32(s0)
    61002312:	7f98                	ld	a4,56(a5)
    61002314:	fb043783          	ld	a5,-80(s0)
    61002318:	97ba                	add	a5,a5,a4
    6100231a:	01878713          	addi	a4,a5,24
    6100231e:	fe043783          	ld	a5,-32(s0)
    61002322:	ff98                	sd	a4,56(a5)
                if (small_mem->parent.max < small_mem->parent.used)
    61002324:	fe043783          	ld	a5,-32(s0)
    61002328:	63b8                	ld	a4,64(a5)
    6100232a:	fe043783          	ld	a5,-32(s0)
    6100232e:	7f9c                	ld	a5,56(a5)
    61002330:	04f77963          	bgeu	a4,a5,61002382 <rt_smem_alloc+0x214>
                    small_mem->parent.max = small_mem->parent.used;
    61002334:	fe043783          	ld	a5,-32(s0)
    61002338:	7f98                	ld	a4,56(a5)
    6100233a:	fe043783          	ld	a5,-32(s0)
    6100233e:	e3b8                	sd	a4,64(a5)
    61002340:	a089                	j	61002382 <rt_smem_alloc+0x214>
                 * take care of this).
                 * -> near fit or excact fit: do not split, no mem2 creation
                 * also can't move mem->next directly behind mem, since mem->next
                 * will always be used at this point!
                 */
                small_mem->parent.used += mem->next - ((rt_uint8_t *)mem - small_mem->heap_ptr);
    61002342:	fe043783          	ld	a5,-32(s0)
    61002346:	7f98                	ld	a4,56(a5)
    61002348:	fd843783          	ld	a5,-40(s0)
    6100234c:	679c                	ld	a5,8(a5)
    6100234e:	fe043683          	ld	a3,-32(s0)
    61002352:	66b4                	ld	a3,72(a3)
    61002354:	fd843603          	ld	a2,-40(s0)
    61002358:	40d606b3          	sub	a3,a2,a3
    6100235c:	8f95                	sub	a5,a5,a3
    6100235e:	973e                	add	a4,a4,a5
    61002360:	fe043783          	ld	a5,-32(s0)
    61002364:	ff98                	sd	a4,56(a5)
                if (small_mem->parent.max < small_mem->parent.used)
    61002366:	fe043783          	ld	a5,-32(s0)
    6100236a:	63b8                	ld	a4,64(a5)
    6100236c:	fe043783          	ld	a5,-32(s0)
    61002370:	7f9c                	ld	a5,56(a5)
    61002372:	00f77863          	bgeu	a4,a5,61002382 <rt_smem_alloc+0x214>
                    small_mem->parent.max = small_mem->parent.used;
    61002376:	fe043783          	ld	a5,-32(s0)
    6100237a:	7f98                	ld	a4,56(a5)
    6100237c:	fe043783          	ld	a5,-32(s0)
    61002380:	e3b8                	sd	a4,64(a5)
            }
            /* set small memory object */
            mem->pool_ptr = MEM_USED();
    61002382:	fe043703          	ld	a4,-32(s0)
    61002386:	57fd                	li	a5,-1
    61002388:	9381                	srli	a5,a5,0x20
    6100238a:	8ff9                	and	a5,a5,a4
    6100238c:	0017e793          	ori	a5,a5,1
    61002390:	873e                	mv	a4,a5
    61002392:	fd843783          	ld	a5,-40(s0)
    61002396:	e398                	sd	a4,0(a5)
                rt_smem_setname(mem, rt_thread_self()->name);
            else
                rt_smem_setname(mem, "NONE");
#endif /* RT_USING_MEMTRACE */

            if (mem == small_mem->lfree)
    61002398:	fe043783          	ld	a5,-32(s0)
    6100239c:	6fbc                	ld	a5,88(a5)
    6100239e:	fd843703          	ld	a4,-40(s0)
    610023a2:	06f71663          	bne	a4,a5,6100240e <rt_smem_alloc+0x2a0>
            {
                /* Find next free block after mem and update lowest free pointer */
                while (MEM_ISUSED(small_mem->lfree) && small_mem->lfree != small_mem->heap_end)
    610023a6:	a821                	j	610023be <rt_smem_alloc+0x250>
                    small_mem->lfree = (struct rt_small_mem_item *)&small_mem->heap_ptr[small_mem->lfree->next];
    610023a8:	fe043783          	ld	a5,-32(s0)
    610023ac:	67b8                	ld	a4,72(a5)
    610023ae:	fe043783          	ld	a5,-32(s0)
    610023b2:	6fbc                	ld	a5,88(a5)
    610023b4:	679c                	ld	a5,8(a5)
    610023b6:	973e                	add	a4,a4,a5
    610023b8:	fe043783          	ld	a5,-32(s0)
    610023bc:	efb8                	sd	a4,88(a5)
                while (MEM_ISUSED(small_mem->lfree) && small_mem->lfree != small_mem->heap_end)
    610023be:	fe043783          	ld	a5,-32(s0)
    610023c2:	6fbc                	ld	a5,88(a5)
    610023c4:	639c                	ld	a5,0(a5)
    610023c6:	8b85                	andi	a5,a5,1
    610023c8:	cb89                	beqz	a5,610023da <rt_smem_alloc+0x26c>
    610023ca:	fe043783          	ld	a5,-32(s0)
    610023ce:	6fb8                	ld	a4,88(a5)
    610023d0:	fe043783          	ld	a5,-32(s0)
    610023d4:	6bbc                	ld	a5,80(a5)
    610023d6:	fcf719e3          	bne	a4,a5,610023a8 <rt_smem_alloc+0x23a>

                RT_ASSERT(((small_mem->lfree == small_mem->heap_end) || (!MEM_ISUSED(small_mem->lfree))));
    610023da:	fe043783          	ld	a5,-32(s0)
    610023de:	6fb8                	ld	a4,88(a5)
    610023e0:	fe043783          	ld	a5,-32(s0)
    610023e4:	6bbc                	ld	a5,80(a5)
    610023e6:	02f70463          	beq	a4,a5,6100240e <rt_smem_alloc+0x2a0>
    610023ea:	fe043783          	ld	a5,-32(s0)
    610023ee:	6fbc                	ld	a5,88(a5)
    610023f0:	639c                	ld	a5,0(a5)
    610023f2:	8b85                	andi	a5,a5,1
    610023f4:	cf89                	beqz	a5,6100240e <rt_smem_alloc+0x2a0>
    610023f6:	18700613          	li	a2,391
    610023fa:	00006597          	auipc	a1,0x6
    610023fe:	59658593          	addi	a1,a1,1430 # 61008990 <__FUNCTION__.2>
    61002402:	00006517          	auipc	a0,0x6
    61002406:	26650513          	addi	a0,a0,614 # 61008668 <__FUNCTION__.3+0x128>
    6100240a:	55e020ef          	jal	ra,61004968 <rt_assert_handler>
            }
            RT_ASSERT((rt_ubase_t)mem + SIZEOF_STRUCT_MEM + size <= (rt_ubase_t)small_mem->heap_end);
    6100240e:	fd843703          	ld	a4,-40(s0)
    61002412:	fb043783          	ld	a5,-80(s0)
    61002416:	97ba                	add	a5,a5,a4
    61002418:	07e1                	addi	a5,a5,24
    6100241a:	fe043703          	ld	a4,-32(s0)
    6100241e:	6b38                	ld	a4,80(a4)
    61002420:	00f77e63          	bgeu	a4,a5,6100243c <rt_smem_alloc+0x2ce>
    61002424:	18900613          	li	a2,393
    61002428:	00006597          	auipc	a1,0x6
    6100242c:	56858593          	addi	a1,a1,1384 # 61008990 <__FUNCTION__.2>
    61002430:	00006517          	auipc	a0,0x6
    61002434:	28850513          	addi	a0,a0,648 # 610086b8 <__FUNCTION__.3+0x178>
    61002438:	530020ef          	jal	ra,61004968 <rt_assert_handler>
            RT_ASSERT((rt_ubase_t)((rt_uint8_t *)mem + SIZEOF_STRUCT_MEM) % RT_ALIGN_SIZE == 0);
    6100243c:	fd843783          	ld	a5,-40(s0)
    61002440:	07e1                	addi	a5,a5,24
    61002442:	8b8d                	andi	a5,a5,3
    61002444:	cf89                	beqz	a5,6100245e <rt_smem_alloc+0x2f0>
    61002446:	18a00613          	li	a2,394
    6100244a:	00006597          	auipc	a1,0x6
    6100244e:	54658593          	addi	a1,a1,1350 # 61008990 <__FUNCTION__.2>
    61002452:	00006517          	auipc	a0,0x6
    61002456:	2b650513          	addi	a0,a0,694 # 61008708 <__FUNCTION__.3+0x1c8>
    6100245a:	50e020ef          	jal	ra,61004968 <rt_assert_handler>
            RT_ASSERT((((rt_ubase_t)mem) & (RT_ALIGN_SIZE - 1)) == 0);
    6100245e:	fd843783          	ld	a5,-40(s0)
    61002462:	8b8d                	andi	a5,a5,3
    61002464:	cf89                	beqz	a5,6100247e <rt_smem_alloc+0x310>
    61002466:	18b00613          	li	a2,395
    6100246a:	00006597          	auipc	a1,0x6
    6100246e:	52658593          	addi	a1,a1,1318 # 61008990 <__FUNCTION__.2>
    61002472:	00006517          	auipc	a0,0x6
    61002476:	2e650513          	addi	a0,a0,742 # 61008758 <__FUNCTION__.3+0x218>
    6100247a:	4ee020ef          	jal	ra,61004968 <rt_assert_handler>
                         ("allocate memory at 0x%x, size: %d\n",
                          (rt_ubase_t)((rt_uint8_t *)mem + SIZEOF_STRUCT_MEM),
                          (rt_ubase_t)(mem->next - ((rt_uint8_t *)mem - small_mem->heap_ptr))));

            /* return the memory data except mem struct */
            return (rt_uint8_t *)mem + SIZEOF_STRUCT_MEM;
    6100247e:	fd843783          	ld	a5,-40(s0)
    61002482:	07e1                	addi	a5,a5,24
    61002484:	a035                	j	610024b0 <rt_smem_alloc+0x342>
         ptr = ((struct rt_small_mem_item *)&small_mem->heap_ptr[ptr])->next)
    61002486:	fe043783          	ld	a5,-32(s0)
    6100248a:	67b8                	ld	a4,72(a5)
    6100248c:	fe843783          	ld	a5,-24(s0)
    61002490:	97ba                	add	a5,a5,a4
    61002492:	679c                	ld	a5,8(a5)
    61002494:	fef43423          	sd	a5,-24(s0)
         ptr <= small_mem->mem_size_aligned - size;
    61002498:	fe043783          	ld	a5,-32(s0)
    6100249c:	73b8                	ld	a4,96(a5)
    6100249e:	fb043783          	ld	a5,-80(s0)
    610024a2:	40f707b3          	sub	a5,a4,a5
    for (ptr = (rt_uint8_t *)small_mem->lfree - small_mem->heap_ptr;
    610024a6:	fe843703          	ld	a4,-24(s0)
    610024aa:	d8e7fde3          	bgeu	a5,a4,61002244 <rt_smem_alloc+0xd6>
        }
    }

    return RT_NULL;
    610024ae:	4781                	li	a5,0
}
    610024b0:	853e                	mv	a0,a5
    610024b2:	60a6                	ld	ra,72(sp)
    610024b4:	6406                	ld	s0,64(sp)
    610024b6:	6161                	addi	sp,sp,80
    610024b8:	8082                	ret

00000000610024ba <rt_smem_free>:
 *        rt_mem_alloc. The released memory block is taken back to system heap.
 *
 * @param rmem the address of memory which will be released.
 */
void rt_smem_free(void *rmem)
{
    610024ba:	7179                	addi	sp,sp,-48
    610024bc:	f406                	sd	ra,40(sp)
    610024be:	f022                	sd	s0,32(sp)
    610024c0:	1800                	addi	s0,sp,48
    610024c2:	fca43c23          	sd	a0,-40(s0)
    struct rt_small_mem_item *mem;
    struct rt_small_mem *small_mem;

    if (rmem == RT_NULL)
    610024c6:	fd843783          	ld	a5,-40(s0)
    610024ca:	1a078263          	beqz	a5,6100266e <rt_smem_free+0x1b4>
        return;

    RT_ASSERT((((rt_ubase_t)rmem) & (RT_ALIGN_SIZE - 1)) == 0);
    610024ce:	fd843783          	ld	a5,-40(s0)
    610024d2:	8b8d                	andi	a5,a5,3
    610024d4:	cf89                	beqz	a5,610024ee <rt_smem_free+0x34>
    610024d6:	20c00613          	li	a2,524
    610024da:	00006597          	auipc	a1,0x6
    610024de:	4c658593          	addi	a1,a1,1222 # 610089a0 <__FUNCTION__.0>
    610024e2:	00006517          	auipc	a0,0x6
    610024e6:	2a650513          	addi	a0,a0,678 # 61008788 <__FUNCTION__.3+0x248>
    610024ea:	47e020ef          	jal	ra,61004968 <rt_assert_handler>

    /* Get the corresponding struct rt_small_mem_item ... */
    mem = (struct rt_small_mem_item *)((rt_uint8_t *)rmem - SIZEOF_STRUCT_MEM);
    610024ee:	fd843783          	ld	a5,-40(s0)
    610024f2:	17a1                	addi	a5,a5,-24
    610024f4:	fef43423          	sd	a5,-24(s0)
                 ("release memory 0x%x, size: %d\n",
                  (rt_ubase_t)rmem,
                  (rt_ubase_t)(mem->next - ((rt_uint8_t *)mem - small_mem->heap_ptr))));

    /* ... which has to be in a used state ... */
    small_mem = MEM_POOL(mem);
    610024f8:	fe843783          	ld	a5,-24(s0)
    610024fc:	639c                	ld	a5,0(a5)
    610024fe:	873e                	mv	a4,a5
    61002500:	4785                	li	a5,1
    61002502:	1782                	slli	a5,a5,0x20
    61002504:	17f9                	addi	a5,a5,-2
    61002506:	8ff9                	and	a5,a5,a4
    61002508:	fef43023          	sd	a5,-32(s0)
    RT_ASSERT(small_mem != RT_NULL);
    6100250c:	fe043783          	ld	a5,-32(s0)
    61002510:	ef89                	bnez	a5,6100252a <rt_smem_free+0x70>
    61002512:	21800613          	li	a2,536
    61002516:	00006597          	auipc	a1,0x6
    6100251a:	48a58593          	addi	a1,a1,1162 # 610089a0 <__FUNCTION__.0>
    6100251e:	00006517          	auipc	a0,0x6
    61002522:	30a50513          	addi	a0,a0,778 # 61008828 <__FUNCTION__.3+0x2e8>
    61002526:	442020ef          	jal	ra,61004968 <rt_assert_handler>
    RT_ASSERT(MEM_ISUSED(mem));
    6100252a:	fe843783          	ld	a5,-24(s0)
    6100252e:	639c                	ld	a5,0(a5)
    61002530:	8b85                	andi	a5,a5,1
    61002532:	ef89                	bnez	a5,6100254c <rt_smem_free+0x92>
    61002534:	21900613          	li	a2,537
    61002538:	00006597          	auipc	a1,0x6
    6100253c:	46858593          	addi	a1,a1,1128 # 610089a0 <__FUNCTION__.0>
    61002540:	00006517          	auipc	a0,0x6
    61002544:	30050513          	addi	a0,a0,768 # 61008840 <__FUNCTION__.3+0x300>
    61002548:	420020ef          	jal	ra,61004968 <rt_assert_handler>
    RT_ASSERT(rt_object_get_type(&small_mem->parent.parent) == RT_Object_Class_Memory);
    6100254c:	fe043783          	ld	a5,-32(s0)
    61002550:	853e                	mv	a0,a5
    61002552:	59a000ef          	jal	ra,61002aec <rt_object_get_type>
    61002556:	87aa                	mv	a5,a0
    61002558:	873e                	mv	a4,a5
    6100255a:	47b1                	li	a5,12
    6100255c:	00f70e63          	beq	a4,a5,61002578 <rt_smem_free+0xbe>
    61002560:	21a00613          	li	a2,538
    61002564:	00006597          	auipc	a1,0x6
    61002568:	43c58593          	addi	a1,a1,1084 # 610089a0 <__FUNCTION__.0>
    6100256c:	00006517          	auipc	a0,0x6
    61002570:	2e450513          	addi	a0,a0,740 # 61008850 <__FUNCTION__.3+0x310>
    61002574:	3f4020ef          	jal	ra,61004968 <rt_assert_handler>
    RT_ASSERT(rt_object_is_systemobject(&small_mem->parent.parent));
    61002578:	fe043783          	ld	a5,-32(s0)
    6100257c:	853e                	mv	a0,a5
    6100257e:	520000ef          	jal	ra,61002a9e <rt_object_is_systemobject>
    61002582:	87aa                	mv	a5,a0
    61002584:	ef89                	bnez	a5,6100259e <rt_smem_free+0xe4>
    61002586:	21b00613          	li	a2,539
    6100258a:	00006597          	auipc	a1,0x6
    6100258e:	41658593          	addi	a1,a1,1046 # 610089a0 <__FUNCTION__.0>
    61002592:	00006517          	auipc	a0,0x6
    61002596:	30650513          	addi	a0,a0,774 # 61008898 <__FUNCTION__.3+0x358>
    6100259a:	3ce020ef          	jal	ra,61004968 <rt_assert_handler>
    RT_ASSERT((rt_uint8_t *)rmem >= (rt_uint8_t *)small_mem->heap_ptr &&
    6100259e:	fe043783          	ld	a5,-32(s0)
    610025a2:	67bc                	ld	a5,72(a5)
    610025a4:	fd843703          	ld	a4,-40(s0)
    610025a8:	00f76963          	bltu	a4,a5,610025ba <rt_smem_free+0x100>
    610025ac:	fe043783          	ld	a5,-32(s0)
    610025b0:	6bbc                	ld	a5,80(a5)
    610025b2:	fd843703          	ld	a4,-40(s0)
    610025b6:	00f76e63          	bltu	a4,a5,610025d2 <rt_smem_free+0x118>
    610025ba:	21c00613          	li	a2,540
    610025be:	00006597          	auipc	a1,0x6
    610025c2:	3e258593          	addi	a1,a1,994 # 610089a0 <__FUNCTION__.0>
    610025c6:	00006517          	auipc	a0,0x6
    610025ca:	30a50513          	addi	a0,a0,778 # 610088d0 <__FUNCTION__.3+0x390>
    610025ce:	39a020ef          	jal	ra,61004968 <rt_assert_handler>
              (rt_uint8_t *)rmem < (rt_uint8_t *)small_mem->heap_end);
    RT_ASSERT(MEM_POOL(&small_mem->heap_ptr[mem->next]) == small_mem);
    610025d2:	fe043783          	ld	a5,-32(s0)
    610025d6:	67b8                	ld	a4,72(a5)
    610025d8:	fe843783          	ld	a5,-24(s0)
    610025dc:	679c                	ld	a5,8(a5)
    610025de:	97ba                	add	a5,a5,a4
    610025e0:	639c                	ld	a5,0(a5)
    610025e2:	873e                	mv	a4,a5
    610025e4:	4785                	li	a5,1
    610025e6:	1782                	slli	a5,a5,0x20
    610025e8:	17f9                	addi	a5,a5,-2
    610025ea:	8ff9                	and	a5,a5,a4
    610025ec:	873e                	mv	a4,a5
    610025ee:	fe043783          	ld	a5,-32(s0)
    610025f2:	00e78e63          	beq	a5,a4,6100260e <rt_smem_free+0x154>
    610025f6:	21e00613          	li	a2,542
    610025fa:	00006597          	auipc	a1,0x6
    610025fe:	3a658593          	addi	a1,a1,934 # 610089a0 <__FUNCTION__.0>
    61002602:	00006517          	auipc	a0,0x6
    61002606:	34650513          	addi	a0,a0,838 # 61008948 <__FUNCTION__.3+0x408>
    6100260a:	35e020ef          	jal	ra,61004968 <rt_assert_handler>

    /* ... and is now unused. */
    mem->pool_ptr = MEM_FREED();
    6100260e:	fe043703          	ld	a4,-32(s0)
    61002612:	4785                	li	a5,1
    61002614:	1782                	slli	a5,a5,0x20
    61002616:	17f9                	addi	a5,a5,-2
    61002618:	8f7d                	and	a4,a4,a5
    6100261a:	fe843783          	ld	a5,-24(s0)
    6100261e:	e398                	sd	a4,0(a5)
#ifdef RT_USING_MEMTRACE
    rt_smem_setname(mem, "    ");
#endif /* RT_USING_MEMTRACE */

    if (mem < small_mem->lfree)
    61002620:	fe043783          	ld	a5,-32(s0)
    61002624:	6fbc                	ld	a5,88(a5)
    61002626:	fe843703          	ld	a4,-24(s0)
    6100262a:	00f77763          	bgeu	a4,a5,61002638 <rt_smem_free+0x17e>
    {
        /* the newly freed struct is now the lowest */
        small_mem->lfree = mem;
    6100262e:	fe043783          	ld	a5,-32(s0)
    61002632:	fe843703          	ld	a4,-24(s0)
    61002636:	efb8                	sd	a4,88(a5)
    }

    small_mem->parent.used -= (mem->next - ((rt_uint8_t *)mem - small_mem->heap_ptr));
    61002638:	fe043783          	ld	a5,-32(s0)
    6100263c:	7f98                	ld	a4,56(a5)
    6100263e:	fe043783          	ld	a5,-32(s0)
    61002642:	67bc                	ld	a5,72(a5)
    61002644:	fe843683          	ld	a3,-24(s0)
    61002648:	40f687b3          	sub	a5,a3,a5
    6100264c:	86be                	mv	a3,a5
    6100264e:	fe843783          	ld	a5,-24(s0)
    61002652:	679c                	ld	a5,8(a5)
    61002654:	40f687b3          	sub	a5,a3,a5
    61002658:	973e                	add	a4,a4,a5
    6100265a:	fe043783          	ld	a5,-32(s0)
    6100265e:	ff98                	sd	a4,56(a5)

    /* finally, see if prev or next are free also */
    plug_holes(small_mem, mem);
    61002660:	fe843583          	ld	a1,-24(s0)
    61002664:	fe043503          	ld	a0,-32(s0)
    61002668:	825ff0ef          	jal	ra,61001e8c <plug_holes>
    6100266c:	a011                	j	61002670 <rt_smem_free+0x1b6>
        return;
    6100266e:	0001                	nop
}
    61002670:	70a2                	ld	ra,40(sp)
    61002672:	7402                	ld	s0,32(sp)
    61002674:	6145                	addi	sp,sp,48
    61002676:	8082                	ret

0000000061002678 <rt_list_insert_after>:
{
    61002678:	1101                	addi	sp,sp,-32
    6100267a:	ec22                	sd	s0,24(sp)
    6100267c:	1000                	addi	s0,sp,32
    6100267e:	fea43423          	sd	a0,-24(s0)
    61002682:	feb43023          	sd	a1,-32(s0)
    l->next->prev = n;
    61002686:	fe843783          	ld	a5,-24(s0)
    6100268a:	639c                	ld	a5,0(a5)
    6100268c:	fe043703          	ld	a4,-32(s0)
    61002690:	e798                	sd	a4,8(a5)
    n->next = l->next;
    61002692:	fe843783          	ld	a5,-24(s0)
    61002696:	6398                	ld	a4,0(a5)
    61002698:	fe043783          	ld	a5,-32(s0)
    6100269c:	e398                	sd	a4,0(a5)
    l->next = n;
    6100269e:	fe843783          	ld	a5,-24(s0)
    610026a2:	fe043703          	ld	a4,-32(s0)
    610026a6:	e398                	sd	a4,0(a5)
    n->prev = l;
    610026a8:	fe043783          	ld	a5,-32(s0)
    610026ac:	fe843703          	ld	a4,-24(s0)
    610026b0:	e798                	sd	a4,8(a5)
}
    610026b2:	0001                	nop
    610026b4:	6462                	ld	s0,24(sp)
    610026b6:	6105                	addi	sp,sp,32
    610026b8:	8082                	ret

00000000610026ba <rt_list_remove>:
{
    610026ba:	1101                	addi	sp,sp,-32
    610026bc:	ec22                	sd	s0,24(sp)
    610026be:	1000                	addi	s0,sp,32
    610026c0:	fea43423          	sd	a0,-24(s0)
    n->next->prev = n->prev;
    610026c4:	fe843783          	ld	a5,-24(s0)
    610026c8:	639c                	ld	a5,0(a5)
    610026ca:	fe843703          	ld	a4,-24(s0)
    610026ce:	6718                	ld	a4,8(a4)
    610026d0:	e798                	sd	a4,8(a5)
    n->prev->next = n->next;
    610026d2:	fe843783          	ld	a5,-24(s0)
    610026d6:	679c                	ld	a5,8(a5)
    610026d8:	fe843703          	ld	a4,-24(s0)
    610026dc:	6318                	ld	a4,0(a4)
    610026de:	e398                	sd	a4,0(a5)
    n->next = n->prev = n;
    610026e0:	fe843783          	ld	a5,-24(s0)
    610026e4:	fe843703          	ld	a4,-24(s0)
    610026e8:	e798                	sd	a4,8(a5)
    610026ea:	fe843783          	ld	a5,-24(s0)
    610026ee:	6798                	ld	a4,8(a5)
    610026f0:	fe843783          	ld	a5,-24(s0)
    610026f4:	e398                	sd	a4,0(a5)
}
    610026f6:	0001                	nop
    610026f8:	6462                	ld	s0,24(sp)
    610026fa:	6105                	addi	sp,sp,32
    610026fc:	8082                	ret

00000000610026fe <rt_object_get_information>:
 *
 * @return the object type information or RT_NULL
 */
struct rt_object_information *
rt_object_get_information(enum rt_object_class_type type)
{
    610026fe:	7179                	addi	sp,sp,-48
    61002700:	f422                	sd	s0,40(sp)
    61002702:	1800                	addi	s0,sp,48
    61002704:	87aa                	mv	a5,a0
    61002706:	fcf42e23          	sw	a5,-36(s0)
    int index;

    for (index = 0; index < RT_Object_Info_Unknown; index ++)
    6100270a:	fe042623          	sw	zero,-20(s0)
    6100270e:	a835                	j	6100274a <rt_object_get_information+0x4c>
        if (_object_container[index].type == type) return &_object_container[index];
    61002710:	0001e717          	auipc	a4,0x1e
    61002714:	8f070713          	addi	a4,a4,-1808 # 61020000 <_object_container>
    61002718:	fec42783          	lw	a5,-20(s0)
    6100271c:	0796                	slli	a5,a5,0x5
    6100271e:	97ba                	add	a5,a5,a4
    61002720:	4398                	lw	a4,0(a5)
    61002722:	fdc42783          	lw	a5,-36(s0)
    61002726:	2781                	sext.w	a5,a5
    61002728:	00e79c63          	bne	a5,a4,61002740 <rt_object_get_information+0x42>
    6100272c:	fec42783          	lw	a5,-20(s0)
    61002730:	00579713          	slli	a4,a5,0x5
    61002734:	0001e797          	auipc	a5,0x1e
    61002738:	8cc78793          	addi	a5,a5,-1844 # 61020000 <_object_container>
    6100273c:	97ba                	add	a5,a5,a4
    6100273e:	a831                	j	6100275a <rt_object_get_information+0x5c>
    for (index = 0; index < RT_Object_Info_Unknown; index ++)
    61002740:	fec42783          	lw	a5,-20(s0)
    61002744:	2785                	addiw	a5,a5,1
    61002746:	fef42623          	sw	a5,-20(s0)
    6100274a:	fec42783          	lw	a5,-20(s0)
    6100274e:	0007871b          	sext.w	a4,a5
    61002752:	47a5                	li	a5,9
    61002754:	fae7dee3          	bge	a5,a4,61002710 <rt_object_get_information+0x12>

    return RT_NULL;
    61002758:	4781                	li	a5,0
}
    6100275a:	853e                	mv	a0,a5
    6100275c:	7422                	ld	s0,40(sp)
    6100275e:	6145                	addi	sp,sp,48
    61002760:	8082                	ret

0000000061002762 <rt_object_init>:
 * @param name is the object name. In system, the object's name must be unique.
 */
void rt_object_init(struct rt_object         *object,
                    enum rt_object_class_type type,
                    const char               *name)
{
    61002762:	715d                	addi	sp,sp,-80
    61002764:	e486                	sd	ra,72(sp)
    61002766:	e0a2                	sd	s0,64(sp)
    61002768:	0880                	addi	s0,sp,80
    6100276a:	fca43423          	sd	a0,-56(s0)
    6100276e:	87ae                	mv	a5,a1
    61002770:	fac43c23          	sd	a2,-72(s0)
    61002774:	fcf42223          	sw	a5,-60(s0)
    rt_base_t level;
    struct rt_list_node *node = RT_NULL;
    61002778:	fe043423          	sd	zero,-24(s0)
#ifdef RT_USING_MODULE
    struct rt_dlmodule *module = dlmodule_self();
#endif /* RT_USING_MODULE */

    /* get object information */
    information = rt_object_get_information(type);
    6100277c:	fc442783          	lw	a5,-60(s0)
    61002780:	853e                	mv	a0,a5
    61002782:	f7dff0ef          	jal	ra,610026fe <rt_object_get_information>
    61002786:	fea43023          	sd	a0,-32(s0)
    RT_ASSERT(information != RT_NULL);
    6100278a:	fe043783          	ld	a5,-32(s0)
    6100278e:	ef89                	bnez	a5,610027a8 <rt_object_init+0x46>
    61002790:	15600613          	li	a2,342
    61002794:	00006597          	auipc	a1,0x6
    61002798:	2bc58593          	addi	a1,a1,700 # 61008a50 <__FUNCTION__.6>
    6100279c:	00006517          	auipc	a0,0x6
    610027a0:	21450513          	addi	a0,a0,532 # 610089b0 <__FUNCTION__.0+0x10>
    610027a4:	1c4020ef          	jal	ra,61004968 <rt_assert_handler>

    /* check object type to avoid re-initialization */

    /* enter critical */
    rt_enter_critical();
    610027a8:	9baff0ef          	jal	ra,61001962 <rt_enter_critical>
    /* try to find object */
    for (node  = information->object_list.next;
    610027ac:	fe043783          	ld	a5,-32(s0)
    610027b0:	679c                	ld	a5,8(a5)
    610027b2:	fef43423          	sd	a5,-24(s0)
    610027b6:	a081                	j	610027f6 <rt_object_init+0x94>
            node != &(information->object_list);
            node  = node->next)
    {
        struct rt_object *obj;

        obj = rt_list_entry(node, struct rt_object, list);
    610027b8:	fe843783          	ld	a5,-24(s0)
    610027bc:	17c1                	addi	a5,a5,-16
    610027be:	fcf43823          	sd	a5,-48(s0)
        if (obj) /* skip warning when disable debug */
    610027c2:	fd043783          	ld	a5,-48(s0)
    610027c6:	c39d                	beqz	a5,610027ec <rt_object_init+0x8a>
        {
            RT_ASSERT(obj != object);
    610027c8:	fd043703          	ld	a4,-48(s0)
    610027cc:	fc843783          	ld	a5,-56(s0)
    610027d0:	00f71e63          	bne	a4,a5,610027ec <rt_object_init+0x8a>
    610027d4:	16600613          	li	a2,358
    610027d8:	00006597          	auipc	a1,0x6
    610027dc:	27858593          	addi	a1,a1,632 # 61008a50 <__FUNCTION__.6>
    610027e0:	00006517          	auipc	a0,0x6
    610027e4:	1e850513          	addi	a0,a0,488 # 610089c8 <__FUNCTION__.0+0x28>
    610027e8:	180020ef          	jal	ra,61004968 <rt_assert_handler>
            node  = node->next)
    610027ec:	fe843783          	ld	a5,-24(s0)
    610027f0:	639c                	ld	a5,0(a5)
    610027f2:	fef43423          	sd	a5,-24(s0)
            node != &(information->object_list);
    610027f6:	fe043783          	ld	a5,-32(s0)
    610027fa:	07a1                	addi	a5,a5,8
    for (node  = information->object_list.next;
    610027fc:	fe843703          	ld	a4,-24(s0)
    61002800:	faf71ce3          	bne	a4,a5,610027b8 <rt_object_init+0x56>
        }
    }
    /* leave critical */
    rt_exit_critical();
    61002804:	9a2ff0ef          	jal	ra,610019a6 <rt_exit_critical>

    /* initialize object's parameters */
    /* set object type to static */
    object->type = type | RT_Object_Class_Static;
    61002808:	fc442783          	lw	a5,-60(s0)
    6100280c:	0ff7f793          	zext.b	a5,a5
    61002810:	f807e793          	ori	a5,a5,-128
    61002814:	0ff7f713          	zext.b	a4,a5
    61002818:	fc843783          	ld	a5,-56(s0)
    6100281c:	00e78423          	sb	a4,8(a5)
    /* copy name */
    rt_strncpy(object->name, name, RT_NAME_MAX);
    61002820:	fc843783          	ld	a5,-56(s0)
    61002824:	4621                	li	a2,8
    61002826:	fb843583          	ld	a1,-72(s0)
    6100282a:	853e                	mv	a0,a5
    6100282c:	0a4010ef          	jal	ra,610038d0 <rt_strncpy>

    RT_OBJECT_HOOK_CALL(rt_object_attach_hook, (object));
    61002830:	89018793          	addi	a5,gp,-1904 # 61020290 <rt_object_attach_hook>
    61002834:	639c                	ld	a5,0(a5)
    61002836:	c799                	beqz	a5,61002844 <rt_object_init+0xe2>
    61002838:	89018793          	addi	a5,gp,-1904 # 61020290 <rt_object_attach_hook>
    6100283c:	639c                	ld	a5,0(a5)
    6100283e:	fc843503          	ld	a0,-56(s0)
    61002842:	9782                	jalr	a5

    /* lock interrupt */
    level = rt_hw_interrupt_disable();
    61002844:	422040ef          	jal	ra,61006c66 <rt_hw_interrupt_disable>
    61002848:	fca43c23          	sd	a0,-40(s0)
    }
    else
#endif /* RT_USING_MODULE */
    {
        /* insert object into information object list */
        rt_list_insert_after(&(information->object_list), &(object->list));
    6100284c:	fe043783          	ld	a5,-32(s0)
    61002850:	00878713          	addi	a4,a5,8
    61002854:	fc843783          	ld	a5,-56(s0)
    61002858:	07c1                	addi	a5,a5,16
    6100285a:	85be                	mv	a1,a5
    6100285c:	853a                	mv	a0,a4
    6100285e:	e1bff0ef          	jal	ra,61002678 <rt_list_insert_after>
    }

    /* unlock interrupt */
    rt_hw_interrupt_enable(level);
    61002862:	fd843503          	ld	a0,-40(s0)
    61002866:	424040ef          	jal	ra,61006c8a <rt_hw_interrupt_enable>
}
    6100286a:	0001                	nop
    6100286c:	60a6                	ld	ra,72(sp)
    6100286e:	6406                	ld	s0,64(sp)
    61002870:	6161                	addi	sp,sp,80
    61002872:	8082                	ret

0000000061002874 <rt_object_detach>:
 *        and the memory of static object is not freed.
 *
 * @param object the specified object to be detached.
 */
void rt_object_detach(rt_object_t object)
{
    61002874:	7179                	addi	sp,sp,-48
    61002876:	f406                	sd	ra,40(sp)
    61002878:	f022                	sd	s0,32(sp)
    6100287a:	1800                	addi	s0,sp,48
    6100287c:	fca43c23          	sd	a0,-40(s0)
    rt_base_t level;

    /* object check */
    RT_ASSERT(object != RT_NULL);
    61002880:	fd843783          	ld	a5,-40(s0)
    61002884:	ef89                	bnez	a5,6100289e <rt_object_detach+0x2a>
    61002886:	19300613          	li	a2,403
    6100288a:	00006597          	auipc	a1,0x6
    6100288e:	1d658593          	addi	a1,a1,470 # 61008a60 <__FUNCTION__.5>
    61002892:	00006517          	auipc	a0,0x6
    61002896:	14650513          	addi	a0,a0,326 # 610089d8 <__FUNCTION__.0+0x38>
    6100289a:	0ce020ef          	jal	ra,61004968 <rt_assert_handler>

    RT_OBJECT_HOOK_CALL(rt_object_detach_hook, (object));
    6100289e:	89818793          	addi	a5,gp,-1896 # 61020298 <rt_object_detach_hook>
    610028a2:	639c                	ld	a5,0(a5)
    610028a4:	c799                	beqz	a5,610028b2 <rt_object_detach+0x3e>
    610028a6:	89818793          	addi	a5,gp,-1896 # 61020298 <rt_object_detach_hook>
    610028aa:	639c                	ld	a5,0(a5)
    610028ac:	fd843503          	ld	a0,-40(s0)
    610028b0:	9782                	jalr	a5

    /* reset object type */
    object->type = 0;
    610028b2:	fd843783          	ld	a5,-40(s0)
    610028b6:	00078423          	sb	zero,8(a5)

    /* lock interrupt */
    level = rt_hw_interrupt_disable();
    610028ba:	3ac040ef          	jal	ra,61006c66 <rt_hw_interrupt_disable>
    610028be:	fea43423          	sd	a0,-24(s0)

    /* remove from old list */
    rt_list_remove(&(object->list));
    610028c2:	fd843783          	ld	a5,-40(s0)
    610028c6:	07c1                	addi	a5,a5,16
    610028c8:	853e                	mv	a0,a5
    610028ca:	df1ff0ef          	jal	ra,610026ba <rt_list_remove>

    /* unlock interrupt */
    rt_hw_interrupt_enable(level);
    610028ce:	fe843503          	ld	a0,-24(s0)
    610028d2:	3b8040ef          	jal	ra,61006c8a <rt_hw_interrupt_enable>
}
    610028d6:	0001                	nop
    610028d8:	70a2                	ld	ra,40(sp)
    610028da:	7402                	ld	s0,32(sp)
    610028dc:	6145                	addi	sp,sp,48
    610028de:	8082                	ret

00000000610028e0 <rt_object_allocate>:
 * @param name is the object name. In system, the object's name must be unique.
 *
 * @return object
 */
rt_object_t rt_object_allocate(enum rt_object_class_type type, const char *name)
{
    610028e0:	7139                	addi	sp,sp,-64
    610028e2:	fc06                	sd	ra,56(sp)
    610028e4:	f822                	sd	s0,48(sp)
    610028e6:	0080                	addi	s0,sp,64
    610028e8:	87aa                	mv	a5,a0
    610028ea:	fcb43023          	sd	a1,-64(s0)
    610028ee:	fcf42623          	sw	a5,-52(s0)
    struct rt_object_information *information;
#ifdef RT_USING_MODULE
    struct rt_dlmodule *module = dlmodule_self();
#endif /* RT_USING_MODULE */

    RT_DEBUG_NOT_IN_INTERRUPT;
    610028f2:	374040ef          	jal	ra,61006c66 <rt_hw_interrupt_disable>
    610028f6:	fea43423          	sd	a0,-24(s0)
    610028fa:	4f1020ef          	jal	ra,610055ea <rt_interrupt_get_nest>
    610028fe:	87aa                	mv	a5,a0
    61002900:	c79d                	beqz	a5,6100292e <rt_object_allocate+0x4e>
    61002902:	00006597          	auipc	a1,0x6
    61002906:	17658593          	addi	a1,a1,374 # 61008a78 <__FUNCTION__.4>
    6100290a:	00006517          	auipc	a0,0x6
    6100290e:	0e650513          	addi	a0,a0,230 # 610089f0 <__FUNCTION__.0+0x50>
    61002912:	535010ef          	jal	ra,61004646 <rt_kprintf>
    61002916:	1b700613          	li	a2,439
    6100291a:	00006597          	auipc	a1,0x6
    6100291e:	15e58593          	addi	a1,a1,350 # 61008a78 <__FUNCTION__.4>
    61002922:	00006517          	auipc	a0,0x6
    61002926:	0f650513          	addi	a0,a0,246 # 61008a18 <__FUNCTION__.0+0x78>
    6100292a:	03e020ef          	jal	ra,61004968 <rt_assert_handler>
    6100292e:	fe843503          	ld	a0,-24(s0)
    61002932:	358040ef          	jal	ra,61006c8a <rt_hw_interrupt_enable>

    /* get object information */
    information = rt_object_get_information(type);
    61002936:	fcc42783          	lw	a5,-52(s0)
    6100293a:	853e                	mv	a0,a5
    6100293c:	dc3ff0ef          	jal	ra,610026fe <rt_object_get_information>
    61002940:	fea43023          	sd	a0,-32(s0)
    RT_ASSERT(information != RT_NULL);
    61002944:	fe043783          	ld	a5,-32(s0)
    61002948:	ef89                	bnez	a5,61002962 <rt_object_allocate+0x82>
    6100294a:	1bb00613          	li	a2,443
    6100294e:	00006597          	auipc	a1,0x6
    61002952:	12a58593          	addi	a1,a1,298 # 61008a78 <__FUNCTION__.4>
    61002956:	00006517          	auipc	a0,0x6
    6100295a:	05a50513          	addi	a0,a0,90 # 610089b0 <__FUNCTION__.0+0x10>
    6100295e:	00a020ef          	jal	ra,61004968 <rt_assert_handler>

    object = (struct rt_object *)RT_KERNEL_MALLOC(information->object_size);
    61002962:	fe043783          	ld	a5,-32(s0)
    61002966:	6f9c                	ld	a5,24(a5)
    61002968:	853e                	mv	a0,a5
    6100296a:	687010ef          	jal	ra,610047f0 <rt_malloc>
    6100296e:	fca43c23          	sd	a0,-40(s0)
    if (object == RT_NULL)
    61002972:	fd843783          	ld	a5,-40(s0)
    61002976:	e399                	bnez	a5,6100297c <rt_object_allocate+0x9c>
    {
        /* no memory can be allocated */
        return RT_NULL;
    61002978:	4781                	li	a5,0
    6100297a:	a8ad                	j	610029f4 <rt_object_allocate+0x114>
    }

    /* clean memory data of object */
    rt_memset(object, 0x0, information->object_size);
    6100297c:	fe043783          	ld	a5,-32(s0)
    61002980:	6f9c                	ld	a5,24(a5)
    61002982:	863e                	mv	a2,a5
    61002984:	4581                	li	a1,0
    61002986:	fd843503          	ld	a0,-40(s0)
    6100298a:	60f000ef          	jal	ra,61003798 <rt_memset>

    /* initialize object's parameters */

    /* set object type */
    object->type = type;
    6100298e:	fcc42783          	lw	a5,-52(s0)
    61002992:	0ff7f713          	zext.b	a4,a5
    61002996:	fd843783          	ld	a5,-40(s0)
    6100299a:	00e78423          	sb	a4,8(a5)

    /* set object flag */
    object->flag = 0;
    6100299e:	fd843783          	ld	a5,-40(s0)
    610029a2:	000784a3          	sb	zero,9(a5)

    /* copy name */
    rt_strncpy(object->name, name, RT_NAME_MAX);
    610029a6:	fd843783          	ld	a5,-40(s0)
    610029aa:	4621                	li	a2,8
    610029ac:	fc043583          	ld	a1,-64(s0)
    610029b0:	853e                	mv	a0,a5
    610029b2:	71f000ef          	jal	ra,610038d0 <rt_strncpy>

    RT_OBJECT_HOOK_CALL(rt_object_attach_hook, (object));
    610029b6:	89018793          	addi	a5,gp,-1904 # 61020290 <rt_object_attach_hook>
    610029ba:	639c                	ld	a5,0(a5)
    610029bc:	c799                	beqz	a5,610029ca <rt_object_allocate+0xea>
    610029be:	89018793          	addi	a5,gp,-1904 # 61020290 <rt_object_attach_hook>
    610029c2:	639c                	ld	a5,0(a5)
    610029c4:	fd843503          	ld	a0,-40(s0)
    610029c8:	9782                	jalr	a5

    /* lock interrupt */
    level = rt_hw_interrupt_disable();
    610029ca:	29c040ef          	jal	ra,61006c66 <rt_hw_interrupt_disable>
    610029ce:	fca43823          	sd	a0,-48(s0)
    }
    else
#endif /* RT_USING_MODULE */
    {
        /* insert object into information object list */
        rt_list_insert_after(&(information->object_list), &(object->list));
    610029d2:	fe043783          	ld	a5,-32(s0)
    610029d6:	00878713          	addi	a4,a5,8
    610029da:	fd843783          	ld	a5,-40(s0)
    610029de:	07c1                	addi	a5,a5,16
    610029e0:	85be                	mv	a1,a5
    610029e2:	853a                	mv	a0,a4
    610029e4:	c95ff0ef          	jal	ra,61002678 <rt_list_insert_after>
    }

    /* unlock interrupt */
    rt_hw_interrupt_enable(level);
    610029e8:	fd043503          	ld	a0,-48(s0)
    610029ec:	29e040ef          	jal	ra,61006c8a <rt_hw_interrupt_enable>

    /* return object */
    return object;
    610029f0:	fd843783          	ld	a5,-40(s0)
}
    610029f4:	853e                	mv	a0,a5
    610029f6:	70e2                	ld	ra,56(sp)
    610029f8:	7442                	ld	s0,48(sp)
    610029fa:	6121                	addi	sp,sp,64
    610029fc:	8082                	ret

00000000610029fe <rt_object_delete>:
 * @brief This function will delete an object and release object memory.
 *
 * @param object is the specified object to be deleted.
 */
void rt_object_delete(rt_object_t object)
{
    610029fe:	7179                	addi	sp,sp,-48
    61002a00:	f406                	sd	ra,40(sp)
    61002a02:	f022                	sd	s0,32(sp)
    61002a04:	1800                	addi	s0,sp,48
    61002a06:	fca43c23          	sd	a0,-40(s0)
    rt_base_t level;

    /* object check */
    RT_ASSERT(object != RT_NULL);
    61002a0a:	fd843783          	ld	a5,-40(s0)
    61002a0e:	ef89                	bnez	a5,61002a28 <rt_object_delete+0x2a>
    61002a10:	1f500613          	li	a2,501
    61002a14:	00006597          	auipc	a1,0x6
    61002a18:	07c58593          	addi	a1,a1,124 # 61008a90 <__FUNCTION__.3>
    61002a1c:	00006517          	auipc	a0,0x6
    61002a20:	fbc50513          	addi	a0,a0,-68 # 610089d8 <__FUNCTION__.0+0x38>
    61002a24:	745010ef          	jal	ra,61004968 <rt_assert_handler>
    RT_ASSERT(!(object->type & RT_Object_Class_Static));
    61002a28:	fd843783          	ld	a5,-40(s0)
    61002a2c:	0087c783          	lbu	a5,8(a5)
    61002a30:	0187979b          	slliw	a5,a5,0x18
    61002a34:	4187d79b          	sraiw	a5,a5,0x18
    61002a38:	0007de63          	bgez	a5,61002a54 <rt_object_delete+0x56>
    61002a3c:	1f600613          	li	a2,502
    61002a40:	00006597          	auipc	a1,0x6
    61002a44:	05058593          	addi	a1,a1,80 # 61008a90 <__FUNCTION__.3>
    61002a48:	00006517          	auipc	a0,0x6
    61002a4c:	fd850513          	addi	a0,a0,-40 # 61008a20 <__FUNCTION__.0+0x80>
    61002a50:	719010ef          	jal	ra,61004968 <rt_assert_handler>

    RT_OBJECT_HOOK_CALL(rt_object_detach_hook, (object));
    61002a54:	89818793          	addi	a5,gp,-1896 # 61020298 <rt_object_detach_hook>
    61002a58:	639c                	ld	a5,0(a5)
    61002a5a:	c799                	beqz	a5,61002a68 <rt_object_delete+0x6a>
    61002a5c:	89818793          	addi	a5,gp,-1896 # 61020298 <rt_object_detach_hook>
    61002a60:	639c                	ld	a5,0(a5)
    61002a62:	fd843503          	ld	a0,-40(s0)
    61002a66:	9782                	jalr	a5

    /* reset object type */
    object->type = RT_Object_Class_Null;
    61002a68:	fd843783          	ld	a5,-40(s0)
    61002a6c:	00078423          	sb	zero,8(a5)

    /* lock interrupt */
    level = rt_hw_interrupt_disable();
    61002a70:	1f6040ef          	jal	ra,61006c66 <rt_hw_interrupt_disable>
    61002a74:	fea43423          	sd	a0,-24(s0)

    /* remove from old list */
    rt_list_remove(&(object->list));
    61002a78:	fd843783          	ld	a5,-40(s0)
    61002a7c:	07c1                	addi	a5,a5,16
    61002a7e:	853e                	mv	a0,a5
    61002a80:	c3bff0ef          	jal	ra,610026ba <rt_list_remove>

    /* unlock interrupt */
    rt_hw_interrupt_enable(level);
    61002a84:	fe843503          	ld	a0,-24(s0)
    61002a88:	202040ef          	jal	ra,61006c8a <rt_hw_interrupt_enable>

    /* free the memory of object */
    RT_KERNEL_FREE(object);
    61002a8c:	fd843503          	ld	a0,-40(s0)
    61002a90:	5b7010ef          	jal	ra,61004846 <rt_free>
}
    61002a94:	0001                	nop
    61002a96:	70a2                	ld	ra,40(sp)
    61002a98:	7402                	ld	s0,32(sp)
    61002a9a:	6145                	addi	sp,sp,48
    61002a9c:	8082                	ret

0000000061002a9e <rt_object_is_systemobject>:
 * @param object is the specified object to be judged.
 *
 * @return RT_TRUE if a system object, RT_FALSE for others.
 */
rt_bool_t rt_object_is_systemobject(rt_object_t object)
{
    61002a9e:	1101                	addi	sp,sp,-32
    61002aa0:	ec06                	sd	ra,24(sp)
    61002aa2:	e822                	sd	s0,16(sp)
    61002aa4:	1000                	addi	s0,sp,32
    61002aa6:	fea43423          	sd	a0,-24(s0)
    /* object check */
    RT_ASSERT(object != RT_NULL);
    61002aaa:	fe843783          	ld	a5,-24(s0)
    61002aae:	ef89                	bnez	a5,61002ac8 <rt_object_is_systemobject+0x2a>
    61002ab0:	21800613          	li	a2,536
    61002ab4:	00006597          	auipc	a1,0x6
    61002ab8:	ff458593          	addi	a1,a1,-12 # 61008aa8 <__FUNCTION__.2>
    61002abc:	00006517          	auipc	a0,0x6
    61002ac0:	f1c50513          	addi	a0,a0,-228 # 610089d8 <__FUNCTION__.0+0x38>
    61002ac4:	6a5010ef          	jal	ra,61004968 <rt_assert_handler>

    if (object->type & RT_Object_Class_Static)
    61002ac8:	fe843783          	ld	a5,-24(s0)
    61002acc:	0087c783          	lbu	a5,8(a5)
    61002ad0:	0187979b          	slliw	a5,a5,0x18
    61002ad4:	4187d79b          	sraiw	a5,a5,0x18
    61002ad8:	0007d463          	bgez	a5,61002ae0 <rt_object_is_systemobject+0x42>
        return RT_TRUE;
    61002adc:	4785                	li	a5,1
    61002ade:	a011                	j	61002ae2 <rt_object_is_systemobject+0x44>

    return RT_FALSE;
    61002ae0:	4781                	li	a5,0
}
    61002ae2:	853e                	mv	a0,a5
    61002ae4:	60e2                	ld	ra,24(sp)
    61002ae6:	6442                	ld	s0,16(sp)
    61002ae8:	6105                	addi	sp,sp,32
    61002aea:	8082                	ret

0000000061002aec <rt_object_get_type>:
 * @param object is the specified object to be get type.
 *
 * @return the type of object.
 */
rt_uint8_t rt_object_get_type(rt_object_t object)
{
    61002aec:	1101                	addi	sp,sp,-32
    61002aee:	ec06                	sd	ra,24(sp)
    61002af0:	e822                	sd	s0,16(sp)
    61002af2:	1000                	addi	s0,sp,32
    61002af4:	fea43423          	sd	a0,-24(s0)
    /* object check */
    RT_ASSERT(object != RT_NULL);
    61002af8:	fe843783          	ld	a5,-24(s0)
    61002afc:	ef89                	bnez	a5,61002b16 <rt_object_get_type+0x2a>
    61002afe:	22b00613          	li	a2,555
    61002b02:	00006597          	auipc	a1,0x6
    61002b06:	fc658593          	addi	a1,a1,-58 # 61008ac8 <__FUNCTION__.1>
    61002b0a:	00006517          	auipc	a0,0x6
    61002b0e:	ece50513          	addi	a0,a0,-306 # 610089d8 <__FUNCTION__.0+0x38>
    61002b12:	657010ef          	jal	ra,61004968 <rt_assert_handler>

    return object->type & ~RT_Object_Class_Static;
    61002b16:	fe843783          	ld	a5,-24(s0)
    61002b1a:	0087c783          	lbu	a5,8(a5)
    61002b1e:	07f7f793          	andi	a5,a5,127
    61002b22:	0ff7f793          	zext.b	a5,a5
}
    61002b26:	853e                	mv	a0,a5
    61002b28:	60e2                	ld	ra,24(sp)
    61002b2a:	6442                	ld	s0,16(sp)
    61002b2c:	6105                	addi	sp,sp,32
    61002b2e:	8082                	ret

0000000061002b30 <rt_object_find>:
 * in object container.
 *
 * @note this function shall not be invoked in interrupt status.
 */
rt_object_t rt_object_find(const char *name, rt_uint8_t type)
{
    61002b30:	7139                	addi	sp,sp,-64
    61002b32:	fc06                	sd	ra,56(sp)
    61002b34:	f822                	sd	s0,48(sp)
    61002b36:	0080                	addi	s0,sp,64
    61002b38:	fca43423          	sd	a0,-56(s0)
    61002b3c:	87ae                	mv	a5,a1
    61002b3e:	fcf403a3          	sb	a5,-57(s0)
    struct rt_object *object = RT_NULL;
    61002b42:	fe043023          	sd	zero,-32(s0)
    struct rt_list_node *node = RT_NULL;
    61002b46:	fe043423          	sd	zero,-24(s0)
    struct rt_object_information *information = RT_NULL;
    61002b4a:	fc043c23          	sd	zero,-40(s0)

    information = rt_object_get_information((enum rt_object_class_type)type);
    61002b4e:	fc744783          	lbu	a5,-57(s0)
    61002b52:	2781                	sext.w	a5,a5
    61002b54:	853e                	mv	a0,a5
    61002b56:	ba9ff0ef          	jal	ra,610026fe <rt_object_get_information>
    61002b5a:	fca43c23          	sd	a0,-40(s0)

    /* parameter check */
    if ((name == RT_NULL) || (information == RT_NULL)) return RT_NULL;
    61002b5e:	fc843783          	ld	a5,-56(s0)
